
========================================================================

** ELF Header Information

    File Name: D:\Ubuntu\github\SWM221_Alg_QSPI0_NOR_MDK\out\SWM221_QSPI0_NOR.axf

    Machine class: ELFCLASS32 (32-bit)
    Data encoding: ELFDATA2LSB (Little endian)
    Header version: EV_CURRENT (Current version)
    Operating System ABI: none
    ABI Version: 0
    File Type: ET_EXEC (Executable) (2)
    Machine: EM_ARM (ARM)

    Image Entry point: Not specified
    Flags: EF_ARM_ABI_FLOAT_SOFT (0x05000200)

    ARM ELF revision: 5 (ABI version 2)

    Conforms to Soft float procedure-call standard

    Built with
    Component: ARM Compiler 5.06 update 7 (build 960) Tool: armasm [4d35fa]
    Component: ARM Compiler 5.06 update 7 (build 960) Tool: armlink [4d3601]

    Header size: 52 bytes (0x34)
    Program header entry size: 32 bytes (0x20)
    Section header entry size: 40 bytes (0x28)

    Program header entries: 2
    Section header entries: 17

    Program header offset: 129872 (0x0001fb50)
    Section header offset: 129936 (0x0001fb90)

    Section header string table index: 16

========================================================================

** Program header #0 (PT_LOAD) [PF_X + PF_W + PF_R + PF_ARM_SB + PF_ARM_PI]
    Size : 4432 bytes (3408 bytes in file)
    Virtual address: 0x00000000 (Alignment 4)


====================================

** Program header #1 (PT_LOAD) [PF_R + PF_ARM_PI]
    Size : 4256 bytes
    Virtual address: 0x00000d50 (Alignment 4)


========================================================================

** Section #1 'PrgCode' (SHT_PROGBITS) [SHF_ALLOC + SHF_EXECINSTR]
    Size   : 3392 bytes (alignment 4)
    Address: 0x00000000

    $t
    .rev16_text
    __asm___10_FlashPrg_c_Init____REV16
        0x00000000:    ba40        @.      REV16    r0,r0
        0x00000002:    4770        pG      BX       lr
    .rev16_text
    __asm___13_SWM221_port_c_baf2fbaa____REV16
        0x00000004:    ba40        @.      REV16    r0,r0
        0x00000006:    4770        pG      BX       lr
    .rev16_text
    __asm___13_SWM221_gpio_c_db00cdf9____REV16
        0x00000008:    ba40        @.      REV16    r0,r0
        0x0000000a:    4770        pG      BX       lr
    .rev16_text
    __asm___13_SWM221_qspi_c_ae4acbe1____REV16
        0x0000000c:    ba40        @.      REV16    r0,r0
        0x0000000e:    4770        pG      BX       lr
    .rev16_text
    __asm___15_system_SWM221_c_5d646a67____REV16
        0x00000010:    ba40        @.      REV16    r0,r0
        0x00000012:    4770        pG      BX       lr
    .revsh_text
    __asm___10_FlashPrg_c_Init____REVSH
        0x00000014:    bac0        ..      REVSH    r0,r0
        0x00000016:    4770        pG      BX       lr
    .revsh_text
    __asm___13_SWM221_port_c_baf2fbaa____REVSH
        0x00000018:    bac0        ..      REVSH    r0,r0
        0x0000001a:    4770        pG      BX       lr
    .revsh_text
    __asm___13_SWM221_gpio_c_db00cdf9____REVSH
        0x0000001c:    bac0        ..      REVSH    r0,r0
        0x0000001e:    4770        pG      BX       lr
    .revsh_text
    __asm___13_SWM221_qspi_c_ae4acbe1____REVSH
        0x00000020:    bac0        ..      REVSH    r0,r0
        0x00000022:    4770        pG      BX       lr
    .revsh_text
    __asm___15_system_SWM221_c_5d646a67____REVSH
        0x00000024:    bac0        ..      REVSH    r0,r0
        0x00000026:    4770        pG      BX       lr
    .text
    Init
        0x00000028:    b57c        |.      PUSH     {r2-r6,lr}
        0x0000002a:    2a01        .*      CMP      r2,#1
        0x0000002c:    d164        d.      BNE      0xf8 ; Init + 208
        0x0000002e:    b672        r.      CPSID    i
        0x00000030:    2155        U!      MOVS     r1,#0x55
        0x00000032:    486c        lH      LDR      r0,[pc,#432] ; [0x1e4] = 0x40000700
        0x00000034:    6201        .b      STR      r1,[r0,#0x20]
        0x00000036:    496c        lI      LDR      r1,[pc,#432] ; [0x1e8] = 0xffffbfff
        0x00000038:    6241        Ab      STR      r1,[r0,#0x24]
        0x0000003a:    f3bf8f4f    ..O.    DSB      
        0x0000003e:    f3bf8f6f    ..o.    ISB      
        0x00000042:    bf00        ..      NOP      
        0x00000044:    bf00        ..      NOP      
        0x00000046:    bf00        ..      NOP      
        0x00000048:    f3bf8f4f    ..O.    DSB      
        0x0000004c:    f3bf8f6f    ..o.    ISB      
        0x00000050:    bf00        ..      NOP      
        0x00000052:    bf00        ..      NOP      
        0x00000054:    bf00        ..      NOP      
        0x00000056:    2400        .$      MOVS     r4,#0
        0x00000058:    6244        Db      STR      r4,[r0,#0x24]
        0x0000005a:    6204        .b      STR      r4,[r0,#0x20]
        0x0000005c:    f000fe2d    ..-.    BL       SystemInit ; 0xcba
        0x00000060:    4d62        bM      LDR      r5,[pc,#392] ; [0x1ec] = 0x40046020
        0x00000062:    2203        ."      MOVS     r2,#3
        0x00000064:    2300        .#      MOVS     r3,#0
        0x00000066:    4611        .F      MOV      r1,r2
        0x00000068:    4628        (F      MOV      r0,r5
        0x0000006a:    f000f8c7    ....    BL       PORT_Init ; 0x1fc
        0x0000006e:    2300        .#      MOVS     r3,#0
        0x00000070:    2203        ."      MOVS     r2,#3
        0x00000072:    2102        .!      MOVS     r1,#2
        0x00000074:    4628        (F      MOV      r0,r5
        0x00000076:    f000f8c1    ....    BL       PORT_Init ; 0x1fc
        0x0000007a:    485c        \H      LDR      r0,[pc,#368] ; [0x1ec] = 0x40046020
        0x0000007c:    2301        .#      MOVS     r3,#1
        0x0000007e:    461a        .F      MOV      r2,r3
        0x00000080:    210f        .!      MOVS     r1,#0xf
        0x00000082:    3820         8      SUBS     r0,r0,#0x20
        0x00000084:    f000f8ba    ....    BL       PORT_Init ; 0x1fc
        0x00000088:    4d58        XM      LDR      r5,[pc,#352] ; [0x1ec] = 0x40046020
        0x0000008a:    2301        .#      MOVS     r3,#1
        0x0000008c:    3d10        .=      SUBS     r5,r5,#0x10
        0x0000008e:    2202        ."      MOVS     r2,#2
        0x00000090:    2100        .!      MOVS     r1,#0
        0x00000092:    4628        (F      MOV      r0,r5
        0x00000094:    f000f8b2    ....    BL       PORT_Init ; 0x1fc
        0x00000098:    2301        .#      MOVS     r3,#1
        0x0000009a:    2202        ."      MOVS     r2,#2
        0x0000009c:    4619        .F      MOV      r1,r3
        0x0000009e:    4628        (F      MOV      r0,r5
        0x000000a0:    f000f8ac    ....    BL       PORT_Init ; 0x1fc
        0x000000a4:    2202        ."      MOVS     r2,#2
        0x000000a6:    2301        .#      MOVS     r3,#1
        0x000000a8:    4611        .F      MOV      r1,r2
        0x000000aa:    4628        (F      MOV      r0,r5
        0x000000ac:    f000f8a6    ....    BL       PORT_Init ; 0x1fc
        0x000000b0:    484e        NH      LDR      r0,[pc,#312] ; [0x1ec] = 0x40046020
        0x000000b2:    30e0        .0      ADDS     r0,r0,#0xe0
        0x000000b4:    6901        .i      LDR      r1,[r0,#0x10]
        0x000000b6:    2204        ."      MOVS     r2,#4
        0x000000b8:    4311        .C      ORRS     r1,r1,r2
        0x000000ba:    6101        .a      STR      r1,[r0,#0x10]
        0x000000bc:    2017        .       MOVS     r0,#0x17
        0x000000be:    4669        iF      MOV      r1,sp
        0x000000c0:    8008        ..      STRH     r0,[r1,#0]
        0x000000c2:    2003        .       MOVS     r0,#3
        0x000000c4:    8048        H.      STRH     r0,[r1,#2]
        0x000000c6:    2001        .       MOVS     r0,#1
        0x000000c8:    7108        .q      STRB     r0,[r1,#4]
        0x000000ca:    714c        Lq      STRB     r4,[r1,#5]
        0x000000cc:    718c        .q      STRB     r4,[r1,#6]
        0x000000ce:    4c48        HL      LDR      r4,[pc,#288] ; [0x1f0] = 0x40001800
        0x000000d0:    4620         F      MOV      r0,r4
        0x000000d2:    f000f982    ....    BL       QSPI_Init ; 0x3da
        0x000000d6:    4620         F      MOV      r0,r4
        0x000000d8:    f000f9b3    ....    BL       QSPI_Open ; 0x442
        0x000000dc:    4620         F      MOV      r0,r4
        0x000000de:    f000fc0f    ....    BL       QSPI_QuadState ; 0x900
        0x000000e2:    2800        .(      CMP      r0,#0
        0x000000e4:    d106        ..      BNE      0xf4 ; Init + 204
        0x000000e6:    2101        .!      MOVS     r1,#1
        0x000000e8:    4620         F      MOV      r0,r4
        0x000000ea:    f000fc11    ....    BL       QSPI_QuadSwitch ; 0x910
        0x000000ee:    4620         F      MOV      r0,r4
        0x000000f0:    f000fc06    ....    BL       QSPI_QuadState ; 0x900
        0x000000f4:    2800        .(      CMP      r0,#0
        0x000000f6:    d001        ..      BEQ      0xfc ; Init + 212
        0x000000f8:    2000        .       MOVS     r0,#0
        0x000000fa:    bd7c        |.      POP      {r2-r6,pc}
        0x000000fc:    2001        .       MOVS     r0,#1
        0x000000fe:    bd7c        |.      POP      {r2-r6,pc}
    UnInit
        0x00000100:    2000        .       MOVS     r0,#0
        0x00000102:    4770        pG      BX       lr
    EraseSector
        0x00000104:    b510        ..      PUSH     {r4,lr}
        0x00000106:    2109        .!      MOVS     r1,#9
        0x00000108:    0709        ..      LSLS     r1,r1,#28
        0x0000010a:    1841        A.      ADDS     r1,r0,r1
        0x0000010c:    4839        9H      LDR      r0,[pc,#228] ; [0x1f4] = 0x1000001
        0x0000010e:    4281        .B      CMP      r1,r0
        0x00000110:    d301        ..      BCC      0x116 ; EraseSector + 18
        0x00000112:    2001        .       MOVS     r0,#1
        0x00000114:    bd10        ..      POP      {r4,pc}
        0x00000116:    2301        .#      MOVS     r3,#1
        0x00000118:    2240        @"      MOVS     r2,#0x40
        0x0000011a:    4835        5H      LDR      r0,[pc,#212] ; [0x1f0] = 0x40001800
        0x0000011c:    f000fa3d    ..=.    BL       QSPI_Erase_ ; 0x59a
        0x00000120:    2000        .       MOVS     r0,#0
        0x00000122:    bd10        ..      POP      {r4,pc}
    ProgramPage
        0x00000124:    b5fe        ..      PUSH     {r1-r7,lr}
        0x00000126:    460d        .F      MOV      r5,r1
        0x00000128:    4617        .F      MOV      r7,r2
        0x0000012a:    2109        .!      MOVS     r1,#9
        0x0000012c:    0709        ..      LSLS     r1,r1,#28
        0x0000012e:    1846        F.      ADDS     r6,r0,r1
        0x00000130:    4830        0H      LDR      r0,[pc,#192] ; [0x1f4] = 0x1000001
        0x00000132:    4286        .B      CMP      r6,r0
        0x00000134:    d301        ..      BCC      0x13a ; ProgramPage + 22
        0x00000136:    2001        .       MOVS     r0,#1
        0x00000138:    bdfe        ..      POP      {r1-r7,pc}
        0x0000013a:    2400        .$      MOVS     r4,#0
        0x0000013c:    e00e        ..      B        0x15c ; ProgramPage + 56
        0x0000013e:    2001        .       MOVS     r0,#1
        0x00000140:    2104        .!      MOVS     r1,#4
        0x00000142:    1b2b        +.      SUBS     r3,r5,r4
        0x00000144:    9100        ..      STR      r1,[sp,#0]
        0x00000146:    9001        ..      STR      r0,[sp,#4]
        0x00000148:    2bff        .+      CMP      r3,#0xff
        0x0000014a:    d900        ..      BLS      0x14e ; ProgramPage + 42
        0x0000014c:    0203        ..      LSLS     r3,r0,#8
        0x0000014e:    193a        :.      ADDS     r2,r7,r4
        0x00000150:    1931        1.      ADDS     r1,r6,r4
        0x00000152:    4827        'H      LDR      r0,[pc,#156] ; [0x1f0] = 0x40001800
        0x00000154:    f000fa66    ..f.    BL       QSPI_Write_ ; 0x624
        0x00000158:    34ff        .4      ADDS     r4,r4,#0xff
        0x0000015a:    3401        .4      ADDS     r4,#1
        0x0000015c:    42ac        .B      CMP      r4,r5
        0x0000015e:    d3ee        ..      BCC      0x13e ; ProgramPage + 26
        0x00000160:    2000        .       MOVS     r0,#0
        0x00000162:    bdfe        ..      POP      {r1-r7,pc}
    Verify
        0x00000164:    b5fe        ..      PUSH     {r1-r7,lr}
        0x00000166:    460d        .F      MOV      r5,r1
        0x00000168:    4616        .F      MOV      r6,r2
        0x0000016a:    2109        .!      MOVS     r1,#9
        0x0000016c:    0709        ..      LSLS     r1,r1,#28
        0x0000016e:    1844        D.      ADDS     r4,r0,r1
        0x00000170:    4920         I      LDR      r1,[pc,#128] ; [0x1f4] = 0x1000001
        0x00000172:    428c        .B      CMP      r4,r1
        0x00000174:    d217        ..      BCS      0x1a6 ; Verify + 66
        0x00000176:    2001        .       MOVS     r0,#1
        0x00000178:    2104        .!      MOVS     r1,#4
        0x0000017a:    4a1f        .J      LDR      r2,[pc,#124] ; [0x1f8] = 0x10
        0x0000017c:    9000        ..      STR      r0,[sp,#0]
        0x0000017e:    9101        ..      STR      r1,[sp,#4]
        0x00000180:    9002        ..      STR      r0,[sp,#8]
        0x00000182:    462b        +F      MOV      r3,r5
        0x00000184:    444a        JD      ADD      r2,r2,r9
        0x00000186:    4621        !F      MOV      r1,r4
        0x00000188:    4819        .H      LDR      r0,[pc,#100] ; [0x1f0] = 0x40001800
        0x0000018a:    f000fada    ....    BL       QSPI_Read_ ; 0x742
        0x0000018e:    2000        .       MOVS     r0,#0
        0x00000190:    4a19        .J      LDR      r2,[pc,#100] ; [0x1f8] = 0x10
        0x00000192:    2107        .!      MOVS     r1,#7
        0x00000194:    0709        ..      LSLS     r1,r1,#28
        0x00000196:    444a        JD      ADD      r2,r2,r9
        0x00000198:    e007        ..      B        0x1aa ; Verify + 70
        0x0000019a:    5c13        .\      LDRB     r3,[r2,r0]
        0x0000019c:    5c37        7\      LDRB     r7,[r6,r0]
        0x0000019e:    42bb        .B      CMP      r3,r7
        0x000001a0:    d002        ..      BEQ      0x1a8 ; Verify + 68
        0x000001a2:    1820         .      ADDS     r0,r4,r0
        0x000001a4:    1840        @.      ADDS     r0,r0,r1
        0x000001a6:    bdfe        ..      POP      {r1-r7,pc}
        0x000001a8:    1c40        @.      ADDS     r0,r0,#1
        0x000001aa:    42a8        .B      CMP      r0,r5
        0x000001ac:    d3f5        ..      BCC      0x19a ; Verify + 54
        0x000001ae:    1960        `.      ADDS     r0,r4,r5
        0x000001b0:    1840        @.      ADDS     r0,r0,r1
        0x000001b2:    bdfe        ..      POP      {r1-r7,pc}
    Read
        0x000001b4:    b53e        >.      PUSH     {r1-r5,lr}
        0x000001b6:    460d        .F      MOV      r5,r1
        0x000001b8:    2109        .!      MOVS     r1,#9
        0x000001ba:    0709        ..      LSLS     r1,r1,#28
        0x000001bc:    1844        D.      ADDS     r4,r0,r1
        0x000001be:    490d        .I      LDR      r1,[pc,#52] ; [0x1f4] = 0x1000001
        0x000001c0:    428c        .B      CMP      r4,r1
        0x000001c2:    d20d        ..      BCS      0x1e0 ; Read + 44
        0x000001c4:    2001        .       MOVS     r0,#1
        0x000001c6:    2104        .!      MOVS     r1,#4
        0x000001c8:    9000        ..      STR      r0,[sp,#0]
        0x000001ca:    9101        ..      STR      r1,[sp,#4]
        0x000001cc:    9002        ..      STR      r0,[sp,#8]
        0x000001ce:    462b        +F      MOV      r3,r5
        0x000001d0:    4621        !F      MOV      r1,r4
        0x000001d2:    4807        .H      LDR      r0,[pc,#28] ; [0x1f0] = 0x40001800
        0x000001d4:    f000fab5    ....    BL       QSPI_Read_ ; 0x742
        0x000001d8:    2107        .!      MOVS     r1,#7
        0x000001da:    1960        `.      ADDS     r0,r4,r5
        0x000001dc:    0709        ..      LSLS     r1,r1,#28
        0x000001de:    1840        @.      ADDS     r0,r0,r1
        0x000001e0:    bd3e        >.      POP      {r1-r5,pc}
    $d
        0x000001e2:    0000        ..      DCW    0
        0x000001e4:    40000700    ...@    DCD    1073743616
        0x000001e8:    ffffbfff    ....    DCD    4294950911
        0x000001ec:    40046020     `.@    DCD    1074028576
        0x000001f0:    40001800    ...@    DCD    1073747968
        0x000001f4:    01000001    ....    DCD    16777217
        0x000001f8:    00000010    ....    DCD    16
    $t
    .text
    PORT_Init
        0x000001fc:    b570        p.      PUSH     {r4-r6,lr}
        0x000001fe:    250f        .%      MOVS     r5,#0xf
        0x00000200:    2908        .)      CMP      r1,#8
        0x00000202:    d209        ..      BCS      0x218 ; PORT_Init + 28
        0x00000204:    6806        .h      LDR      r6,[r0,#0]
        0x00000206:    008c        ..      LSLS     r4,r1,#2
        0x00000208:    40a5        .@      LSLS     r5,r5,r4
        0x0000020a:    43ae        .C      BICS     r6,r6,r5
        0x0000020c:    6006        .`      STR      r6,[r0,#0]
        0x0000020e:    6805        .h      LDR      r5,[r0,#0]
        0x00000210:    40a2        .@      LSLS     r2,r2,r4
        0x00000212:    4315        .C      ORRS     r5,r5,r2
        0x00000214:    6005        .`      STR      r5,[r0,#0]
        0x00000216:    e00a        ..      B        0x22e ; PORT_Init + 50
        0x00000218:    6846        Fh      LDR      r6,[r0,#4]
        0x0000021a:    460c        .F      MOV      r4,r1
        0x0000021c:    3c08        .<      SUBS     r4,r4,#8
        0x0000021e:    00a4        ..      LSLS     r4,r4,#2
        0x00000220:    40a5        .@      LSLS     r5,r5,r4
        0x00000222:    43ae        .C      BICS     r6,r6,r5
        0x00000224:    6046        F`      STR      r6,[r0,#4]
        0x00000226:    6845        Eh      LDR      r5,[r0,#4]
        0x00000228:    40a2        .@      LSLS     r2,r2,r4
        0x0000022a:    4315        .C      ORRS     r5,r5,r2
        0x0000022c:    6045        E`      STR      r5,[r0,#4]
        0x0000022e:    2403        .$      MOVS     r4,#3
        0x00000230:    0224        $.      LSLS     r4,r4,#8
        0x00000232:    2201        ."      MOVS     r2,#1
        0x00000234:    408a        .@      LSLS     r2,r2,r1
        0x00000236:    1900        ..      ADDS     r0,r0,r4
        0x00000238:    2b00        .+      CMP      r3,#0
        0x0000023a:    d003        ..      BEQ      0x244 ; PORT_Init + 72
        0x0000023c:    6801        .h      LDR      r1,[r0,#0]
        0x0000023e:    4311        .C      ORRS     r1,r1,r2
        0x00000240:    6001        .`      STR      r1,[r0,#0]
        0x00000242:    bd70        p.      POP      {r4-r6,pc}
        0x00000244:    6801        .h      LDR      r1,[r0,#0]
        0x00000246:    4391        .C      BICS     r1,r1,r2
        0x00000248:    6001        .`      STR      r1,[r0,#0]
        0x0000024a:    bd70        p.      POP      {r4-r6,pc}
    .text
    GPIO_Init
        0x0000024c:    b5ff        ..      PUSH     {r0-r7,lr}
        0x0000024e:    b081        ..      SUB      sp,sp,#4
        0x00000250:    4605        .F      MOV      r5,r0
        0x00000252:    460e        .F      MOV      r6,r1
        0x00000254:    4617        .F      MOV      r7,r2
        0x00000256:    4c5b        [L      LDR      r4,[pc,#364] ; [0x3c4] = 0x40046000
        0x00000258:    485b        [H      LDR      r0,[pc,#364] ; [0x3c8] = 0xbfffc800
        0x0000025a:    2101        .!      MOVS     r1,#1
        0x0000025c:    1828        (.      ADDS     r0,r5,r0
        0x0000025e:    0789        ..      LSLS     r1,r1,#30
        0x00000260:    2201        ."      MOVS     r2,#1
        0x00000262:    2800        .(      CMP      r0,#0
        0x00000264:    d033        3.      BEQ      0x2ce ; GPIO_Init + 130
        0x00000266:    14ca        ..      ASRS     r2,r1,#19
        0x00000268:    1a80        ..      SUBS     r0,r0,r2
        0x0000026a:    d034        4.      BEQ      0x2d6 ; GPIO_Init + 138
        0x0000026c:    4290        .B      CMP      r0,r2
        0x0000026e:    d105        ..      BNE      0x27c ; GPIO_Init + 48
        0x00000270:    6888        .h      LDR      r0,[r1,#8]
        0x00000272:    2204        ."      MOVS     r2,#4
        0x00000274:    4310        .C      ORRS     r0,r0,r2
        0x00000276:    6088        .`      STR      r0,[r1,#8]
        0x00000278:    4c52        RL      LDR      r4,[pc,#328] ; [0x3c4] = 0x40046000
        0x0000027a:    3420         4      ADDS     r4,r4,#0x20
        0x0000027c:    2301        .#      MOVS     r3,#1
        0x0000027e:    2200        ."      MOVS     r2,#0
        0x00000280:    4631        1F      MOV      r1,r6
        0x00000282:    4620         F      MOV      r0,r4
        0x00000284:    f7ffffba    ....    BL       PORT_Init ; 0x1fc
        0x00000288:    2001        .       MOVS     r0,#1
        0x0000028a:    40b0        .@      LSLS     r0,r0,r6
        0x0000028c:    2f01        ./      CMP      r7,#1
        0x0000028e:    d029        ).      BEQ      0x2e4 ; GPIO_Init + 152
        0x00000290:    6869        ih      LDR      r1,[r5,#4]
        0x00000292:    4381        .C      BICS     r1,r1,r0
        0x00000294:    6069        i`      STR      r1,[r5,#4]
        0x00000296:    9904        ..      LDR      r1,[sp,#0x10]
        0x00000298:    2901        .)      CMP      r1,#1
        0x0000029a:    d027        '.      BEQ      0x2ec ; GPIO_Init + 160
        0x0000029c:    1de1        ..      ADDS     r1,r4,#7
        0x0000029e:    31f9        .1      ADDS     r1,r1,#0xf9
        0x000002a0:    680a        .h      LDR      r2,[r1,#0]
        0x000002a2:    4382        .C      BICS     r2,r2,r0
        0x000002a4:    600a        .`      STR      r2,[r1,#0]
        0x000002a6:    990a        ..      LDR      r1,[sp,#0x28]
        0x000002a8:    2901        .)      CMP      r1,#1
        0x000002aa:    d025        %.      BEQ      0x2f8 ; GPIO_Init + 172
        0x000002ac:    1de1        ..      ADDS     r1,r4,#7
        0x000002ae:    31ff        .1      ADDS     r1,r1,#0xff
        0x000002b0:    31fa        .1      ADDS     r1,r1,#0xfa
        0x000002b2:    680a        .h      LDR      r2,[r1,#0]
        0x000002b4:    4382        .C      BICS     r2,r2,r0
        0x000002b6:    600a        .`      STR      r2,[r1,#0]
        0x000002b8:    2101        .!      MOVS     r1,#1
        0x000002ba:    9a0b        ..      LDR      r2,[sp,#0x2c]
        0x000002bc:    0289        ..      LSLS     r1,r1,#10
        0x000002be:    2a01        .*      CMP      r2,#1
        0x000002c0:    d021        !.      BEQ      0x306 ; GPIO_Init + 186
        0x000002c2:    1861        a.      ADDS     r1,r4,r1
        0x000002c4:    680a        .h      LDR      r2,[r1,#0]
        0x000002c6:    4382        .C      BICS     r2,r2,r0
        0x000002c8:    600a        .`      STR      r2,[r1,#0]
        0x000002ca:    b005        ..      ADD      sp,sp,#0x14
        0x000002cc:    bdf0        ..      POP      {r4-r7,pc}
        0x000002ce:    6888        .h      LDR      r0,[r1,#8]
        0x000002d0:    4310        .C      ORRS     r0,r0,r2
        0x000002d2:    6088        .`      STR      r0,[r1,#8]
        0x000002d4:    e7d2        ..      B        0x27c ; GPIO_Init + 48
        0x000002d6:    6888        .h      LDR      r0,[r1,#8]
        0x000002d8:    2202        ."      MOVS     r2,#2
        0x000002da:    4310        .C      ORRS     r0,r0,r2
        0x000002dc:    6088        .`      STR      r0,[r1,#8]
        0x000002de:    4c39        9L      LDR      r4,[pc,#228] ; [0x3c4] = 0x40046000
        0x000002e0:    3410        .4      ADDS     r4,r4,#0x10
        0x000002e2:    e7cb        ..      B        0x27c ; GPIO_Init + 48
        0x000002e4:    6869        ih      LDR      r1,[r5,#4]
        0x000002e6:    4301        .C      ORRS     r1,r1,r0
        0x000002e8:    6069        i`      STR      r1,[r5,#4]
        0x000002ea:    e7d4        ..      B        0x296 ; GPIO_Init + 74
        0x000002ec:    1de1        ..      ADDS     r1,r4,#7
        0x000002ee:    31f9        .1      ADDS     r1,r1,#0xf9
        0x000002f0:    680a        .h      LDR      r2,[r1,#0]
        0x000002f2:    4302        .C      ORRS     r2,r2,r0
        0x000002f4:    600a        .`      STR      r2,[r1,#0]
        0x000002f6:    e7d6        ..      B        0x2a6 ; GPIO_Init + 90
        0x000002f8:    1de1        ..      ADDS     r1,r4,#7
        0x000002fa:    31ff        .1      ADDS     r1,r1,#0xff
        0x000002fc:    31fa        .1      ADDS     r1,r1,#0xfa
        0x000002fe:    680a        .h      LDR      r2,[r1,#0]
        0x00000300:    4302        .C      ORRS     r2,r2,r0
        0x00000302:    600a        .`      STR      r2,[r1,#0]
        0x00000304:    e7d8        ..      B        0x2b8 ; GPIO_Init + 108
        0x00000306:    1861        a.      ADDS     r1,r4,r1
        0x00000308:    680a        .h      LDR      r2,[r1,#0]
        0x0000030a:    4302        .C      ORRS     r2,r2,r0
        0x0000030c:    600a        .`      STR      r2,[r1,#0]
        0x0000030e:    e7dc        ..      B        0x2ca ; GPIO_Init + 126
    GPIO_SetBit
        0x00000310:    2201        ."      MOVS     r2,#1
        0x00000312:    0089        ..      LSLS     r1,r1,#2
        0x00000314:    1808        ..      ADDS     r0,r1,r0
        0x00000316:    6402        .d      STR      r2,[r0,#0x40]
        0x00000318:    4770        pG      BX       lr
    GPIO_ClrBit
        0x0000031a:    2200        ."      MOVS     r2,#0
        0x0000031c:    0089        ..      LSLS     r1,r1,#2
        0x0000031e:    1808        ..      ADDS     r0,r1,r0
        0x00000320:    6402        .d      STR      r2,[r0,#0x40]
        0x00000322:    4770        pG      BX       lr
    GPIO_InvBit
        0x00000324:    0089        ..      LSLS     r1,r1,#2
        0x00000326:    1808        ..      ADDS     r0,r1,r0
        0x00000328:    6c01        .l      LDR      r1,[r0,#0x40]
        0x0000032a:    2201        ."      MOVS     r2,#1
        0x0000032c:    1a51        Q.      SUBS     r1,r2,r1
        0x0000032e:    6401        .d      STR      r1,[r0,#0x40]
        0x00000330:    4770        pG      BX       lr
    GPIO_GetBit
        0x00000332:    0089        ..      LSLS     r1,r1,#2
        0x00000334:    1808        ..      ADDS     r0,r1,r0
        0x00000336:    6c00        .l      LDR      r0,[r0,#0x40]
        0x00000338:    4770        pG      BX       lr
    GPIO_SetBits
        0x0000033a:    2310        .#      MOVS     r3,#0x10
        0x0000033c:    1a9b        ..      SUBS     r3,r3,r2
        0x0000033e:    4a23        #J      LDR      r2,[pc,#140] ; [0x3cc] = 0xffff
        0x00000340:    40da        .@      LSRS     r2,r2,r3
        0x00000342:    6803        .h      LDR      r3,[r0,#0]
        0x00000344:    408a        .@      LSLS     r2,r2,r1
        0x00000346:    4313        .C      ORRS     r3,r3,r2
        0x00000348:    6003        .`      STR      r3,[r0,#0]
        0x0000034a:    4770        pG      BX       lr
    GPIO_ClrBits
        0x0000034c:    2310        .#      MOVS     r3,#0x10
        0x0000034e:    1a9b        ..      SUBS     r3,r3,r2
        0x00000350:    4a1e        .J      LDR      r2,[pc,#120] ; [0x3cc] = 0xffff
        0x00000352:    40da        .@      LSRS     r2,r2,r3
        0x00000354:    6803        .h      LDR      r3,[r0,#0]
        0x00000356:    408a        .@      LSLS     r2,r2,r1
        0x00000358:    4393        .C      BICS     r3,r3,r2
        0x0000035a:    6003        .`      STR      r3,[r0,#0]
        0x0000035c:    4770        pG      BX       lr
    GPIO_InvBits
        0x0000035e:    2310        .#      MOVS     r3,#0x10
        0x00000360:    1a9b        ..      SUBS     r3,r3,r2
        0x00000362:    4a1a        .J      LDR      r2,[pc,#104] ; [0x3cc] = 0xffff
        0x00000364:    40da        .@      LSRS     r2,r2,r3
        0x00000366:    6803        .h      LDR      r3,[r0,#0]
        0x00000368:    408a        .@      LSLS     r2,r2,r1
        0x0000036a:    4053        S@      EORS     r3,r3,r2
        0x0000036c:    6003        .`      STR      r3,[r0,#0]
        0x0000036e:    4770        pG      BX       lr
    GPIO_GetBits
        0x00000370:    2310        .#      MOVS     r3,#0x10
        0x00000372:    1a9b        ..      SUBS     r3,r3,r2
        0x00000374:    4a15        .J      LDR      r2,[pc,#84] ; [0x3cc] = 0xffff
        0x00000376:    40da        .@      LSRS     r2,r2,r3
        0x00000378:    6b00        .k      LDR      r0,[r0,#0x30]
        0x0000037a:    40c8        .@      LSRS     r0,r0,r1
        0x0000037c:    4010        .@      ANDS     r0,r0,r2
        0x0000037e:    4770        pG      BX       lr
    GPIO_AtomicSetBits
        0x00000380:    2310        .#      MOVS     r3,#0x10
        0x00000382:    1a9b        ..      SUBS     r3,r3,r2
        0x00000384:    4a11        .J      LDR      r2,[pc,#68] ; [0x3cc] = 0xffff
        0x00000386:    40da        .@      LSRS     r2,r2,r3
        0x00000388:    b672        r.      CPSID    i
        0x0000038a:    6803        .h      LDR      r3,[r0,#0]
        0x0000038c:    408a        .@      LSLS     r2,r2,r1
        0x0000038e:    4313        .C      ORRS     r3,r3,r2
        0x00000390:    6003        .`      STR      r3,[r0,#0]
        0x00000392:    b662        b.      CPSIE    i
        0x00000394:    4770        pG      BX       lr
    GPIO_AtomicClrBits
        0x00000396:    2310        .#      MOVS     r3,#0x10
        0x00000398:    1a9b        ..      SUBS     r3,r3,r2
        0x0000039a:    4a0c        .J      LDR      r2,[pc,#48] ; [0x3cc] = 0xffff
        0x0000039c:    40da        .@      LSRS     r2,r2,r3
        0x0000039e:    b672        r.      CPSID    i
        0x000003a0:    6803        .h      LDR      r3,[r0,#0]
        0x000003a2:    408a        .@      LSLS     r2,r2,r1
        0x000003a4:    4393        .C      BICS     r3,r3,r2
        0x000003a6:    6003        .`      STR      r3,[r0,#0]
        0x000003a8:    b662        b.      CPSIE    i
        0x000003aa:    4770        pG      BX       lr
    GPIO_AtomicInvBits
        0x000003ac:    2310        .#      MOVS     r3,#0x10
        0x000003ae:    1a9b        ..      SUBS     r3,r3,r2
        0x000003b0:    4a06        .J      LDR      r2,[pc,#24] ; [0x3cc] = 0xffff
        0x000003b2:    40da        .@      LSRS     r2,r2,r3
        0x000003b4:    b672        r.      CPSID    i
        0x000003b6:    6803        .h      LDR      r3,[r0,#0]
        0x000003b8:    408a        .@      LSLS     r2,r2,r1
        0x000003ba:    4053        S@      EORS     r3,r3,r2
        0x000003bc:    6003        .`      STR      r3,[r0,#0]
        0x000003be:    b662        b.      CPSIE    i
        0x000003c0:    4770        pG      BX       lr
    $d
        0x000003c2:    0000        ..      DCW    0
        0x000003c4:    40046000    .`.@    DCD    1074028544
        0x000003c8:    bfffc800    ....    DCD    3221211136
        0x000003cc:    0000ffff    ....    DCD    65535
    $t
    .text
    QSPI_Close
        0x000003d0:    6801        .h      LDR      r1,[r0,#0]
        0x000003d2:    0849        I.      LSRS     r1,r1,#1
        0x000003d4:    0049        I.      LSLS     r1,r1,#1
        0x000003d6:    6001        .`      STR      r1,[r0,#0]
        0x000003d8:    4770        pG      BX       lr
    QSPI_Init
        0x000003da:    b570        p.      PUSH     {r4-r6,lr}
        0x000003dc:    4603        .F      MOV      r3,r0
        0x000003de:    460a        .F      MOV      r2,r1
        0x000003e0:    48fd        .H      LDR      r0,[pc,#1012] ; [0x7d8] = 0xbfffe800
        0x000003e2:    4dfe        .M      LDR      r5,[pc,#1016] ; [0x7dc] = 0x100
        0x000003e4:    181c        ..      ADDS     r4,r3,r0
        0x000003e6:    d103        ..      BNE      0x3f0 ; QSPI_Init + 22
        0x000003e8:    04c0        ..      LSLS     r0,r0,#19
        0x000003ea:    6881        .h      LDR      r1,[r0,#8]
        0x000003ec:    4329        )C      ORRS     r1,r1,r5
        0x000003ee:    6081        .`      STR      r1,[r0,#8]
        0x000003f0:    4618        .F      MOV      r0,r3
        0x000003f2:    f7ffffed    ....    BL       QSPI_Close ; 0x3d0
        0x000003f6:    7990        .y      LDRB     r0,[r2,#6]
        0x000003f8:    2107        .!      MOVS     r1,#7
        0x000003fa:    0400        ..      LSLS     r0,r0,#16
        0x000003fc:    0209        ..      LSLS     r1,r1,#8
        0x000003fe:    1840        @.      ADDS     r0,r0,r1
        0x00000400:    7891        .x      LDRB     r1,[r2,#2]
        0x00000402:    1e49        I.      SUBS     r1,r1,#1
        0x00000404:    0609        ..      LSLS     r1,r1,#24
        0x00000406:    4308        .C      ORRS     r0,r0,r1
        0x00000408:    6018        .`      STR      r0,[r3,#0]
        0x0000040a:    8811        ..      LDRH     r1,[r2,#0]
        0x0000040c:    2603        .&      MOVS     r6,#3
        0x0000040e:    0409        ..      LSLS     r1,r1,#16
        0x00000410:    7910        .y      LDRB     r0,[r2,#4]
        0x00000412:    0236        6.      LSLS     r6,r6,#8
        0x00000414:    4331        1C      ORRS     r1,r1,r6
        0x00000416:    4308        .C      ORRS     r0,r0,r1
        0x00000418:    6058        X`      STR      r0,[r3,#4]
        0x0000041a:    8810        ..      LDRH     r0,[r2,#0]
        0x0000041c:    49f0        .I      LDR      r1,[pc,#960] ; [0x7e0] = 0x4
        0x0000041e:    08c0        ..      LSRS     r0,r0,#3
        0x00000420:    4449        ID      ADD      r1,r1,r9
        0x00000422:    7008        .p      STRB     r0,[r1,#0]
        0x00000424:    7950        Py      LDRB     r0,[r2,#5]
        0x00000426:    0700        ..      LSLS     r0,r0,#28
        0x00000428:    0f00        ..      LSRS     r0,r0,#28
        0x0000042a:    3020         0      ADDS     r0,r0,#0x20
        0x0000042c:    6418        .d      STR      r0,[r3,#0x40]
        0x0000042e:    201b        .       MOVS     r0,#0x1b
        0x00000430:    60d8        .`      STR      r0,[r3,#0xc]
        0x00000432:    7990        .y      LDRB     r0,[r2,#6]
        0x00000434:    2800        .(      CMP      r0,#0
        0x00000436:    d003        ..      BEQ      0x440 ; QSPI_Init + 102
        0x00000438:    2c00        .,      CMP      r4,#0
        0x0000043a:    d101        ..      BNE      0x440 ; QSPI_Init + 102
        0x0000043c:    48e9        .H      LDR      r0,[pc,#932] ; [0x7e4] = 0xe000e100
        0x0000043e:    6005        .`      STR      r5,[r0,#0]
        0x00000440:    bd70        p.      POP      {r4-r6,pc}
    QSPI_Open
        0x00000442:    6801        .h      LDR      r1,[r0,#0]
        0x00000444:    2201        ."      MOVS     r2,#1
        0x00000446:    4311        .C      ORRS     r1,r1,r2
        0x00000448:    6001        .`      STR      r1,[r0,#0]
        0x0000044a:    4770        pG      BX       lr
    QSPI_CmdStructClear
        0x0000044c:    2100        .!      MOVS     r1,#0
        0x0000044e:    7001        .p      STRB     r1,[r0,#0]
        0x00000450:    7041        Ap      STRB     r1,[r0,#1]
        0x00000452:    6041        A`      STR      r1,[r0,#4]
        0x00000454:    7201        .r      STRB     r1,[r0,#8]
        0x00000456:    7241        Ar      STRB     r1,[r0,#9]
        0x00000458:    60c1        .`      STR      r1,[r0,#0xc]
        0x0000045a:    7401        .t      STRB     r1,[r0,#0x10]
        0x0000045c:    7441        At      STRB     r1,[r0,#0x11]
        0x0000045e:    7481        .t      STRB     r1,[r0,#0x12]
        0x00000460:    74c1        .t      STRB     r1,[r0,#0x13]
        0x00000462:    6141        Aa      STR      r1,[r0,#0x14]
        0x00000464:    7601        .v      STRB     r1,[r0,#0x18]
        0x00000466:    4770        pG      BX       lr
    QSPI_Command
        0x00000468:    b530        0.      PUSH     {r4,r5,lr}
        0x0000046a:    7c13        .|      LDRB     r3,[r2,#0x10]
        0x0000046c:    2b00        .+      CMP      r3,#0
        0x0000046e:    d001        ..      BEQ      0x474 ; QSPI_Command + 12
        0x00000470:    68d3        .h      LDR      r3,[r2,#0xc]
        0x00000472:    61c3        .a      STR      r3,[r0,#0x1c]
        0x00000474:    7cd3        .|      LDRB     r3,[r2,#0x13]
        0x00000476:    2b00        .+      CMP      r3,#0
        0x00000478:    d002        ..      BEQ      0x480 ; QSPI_Command + 24
        0x0000047a:    6953        Si      LDR      r3,[r2,#0x14]
        0x0000047c:    1e5b        [.      SUBS     r3,r3,#1
        0x0000047e:    6103        .a      STR      r3,[r0,#0x10]
        0x00000480:    7854        Tx      LDRB     r4,[r2,#1]
        0x00000482:    7813        .x      LDRB     r3,[r2,#0]
        0x00000484:    0224        $.      LSLS     r4,r4,#8
        0x00000486:    4323        #C      ORRS     r3,r3,r4
        0x00000488:    7a14        .z      LDRB     r4,[r2,#8]
        0x0000048a:    7a55        Uz      LDRB     r5,[r2,#9]
        0x0000048c:    02a4        ..      LSLS     r4,r4,#10
        0x0000048e:    032d        -.      LSLS     r5,r5,#12
        0x00000490:    432c        ,C      ORRS     r4,r4,r5
        0x00000492:    4323        #C      ORRS     r3,r3,r4
        0x00000494:    7c14        .|      LDRB     r4,[r2,#0x10]
        0x00000496:    0689        ..      LSLS     r1,r1,#26
        0x00000498:    03a4        ..      LSLS     r4,r4,#14
        0x0000049a:    4323        #C      ORRS     r3,r3,r4
        0x0000049c:    7c54        T|      LDRB     r4,[r2,#0x11]
        0x0000049e:    0424        $.      LSLS     r4,r4,#16
        0x000004a0:    4323        #C      ORRS     r3,r3,r4
        0x000004a2:    7c94        .|      LDRB     r4,[r2,#0x12]
        0x000004a4:    04a4        ..      LSLS     r4,r4,#18
        0x000004a6:    4323        #C      ORRS     r3,r3,r4
        0x000004a8:    7cd4        .|      LDRB     r4,[r2,#0x13]
        0x000004aa:    0624        $.      LSLS     r4,r4,#24
        0x000004ac:    4323        #C      ORRS     r3,r3,r4
        0x000004ae:    430b        .C      ORRS     r3,r3,r1
        0x000004b0:    7e11        .~      LDRB     r1,[r2,#0x18]
        0x000004b2:    0709        ..      LSLS     r1,r1,#28
        0x000004b4:    430b        .C      ORRS     r3,r3,r1
        0x000004b6:    6143        Ca      STR      r3,[r0,#0x14]
        0x000004b8:    7a11        .z      LDRB     r1,[r2,#8]
        0x000004ba:    2900        .)      CMP      r1,#0
        0x000004bc:    d001        ..      BEQ      0x4c2 ; QSPI_Command + 90
        0x000004be:    6851        Qh      LDR      r1,[r2,#4]
        0x000004c0:    6181        .a      STR      r1,[r0,#0x18]
        0x000004c2:    2000        .       MOVS     r0,#0
        0x000004c4:    bf00        ..      NOP      
        0x000004c6:    1c40        @.      ADDS     r0,r0,#1
        0x000004c8:    2803        .(      CMP      r0,#3
        0x000004ca:    dbfb        ..      BLT      0x4c4 ; QSPI_Command + 92
        0x000004cc:    bd30        0.      POP      {r4,r5,pc}
    QSPI_ReadReg
        0x000004ce:    b530        0.      PUSH     {r4,r5,lr}
        0x000004d0:    b088        ..      SUB      sp,sp,#0x20
        0x000004d2:    4605        .F      MOV      r5,r0
        0x000004d4:    460b        .F      MOV      r3,r1
        0x000004d6:    4614        .F      MOV      r4,r2
        0x000004d8:    a801        ..      ADD      r0,sp,#4
        0x000004da:    f7ffffb7    ....    BL       QSPI_CmdStructClear ; 0x44c
        0x000004de:    2201        ."      MOVS     r2,#1
        0x000004e0:    4669        iF      MOV      r1,sp
        0x000004e2:    714a        Jq      STRB     r2,[r1,#5]
        0x000004e4:    710b        .q      STRB     r3,[r1,#4]
        0x000004e6:    2000        .       MOVS     r0,#0
        0x000004e8:    7308        .s      STRB     r0,[r1,#0xc]
        0x000004ea:    7508        .u      STRB     r0,[r1,#0x14]
        0x000004ec:    7588        .u      STRB     r0,[r1,#0x16]
        0x000004ee:    75ca        .u      STRB     r2,[r1,#0x17]
        0x000004f0:    9406        ..      STR      r4,[sp,#0x18]
        0x000004f2:    aa01        ..      ADD      r2,sp,#4
        0x000004f4:    2101        .!      MOVS     r1,#1
        0x000004f6:    4628        (F      MOV      r0,r5
        0x000004f8:    f7ffffb6    ....    BL       QSPI_Command ; 0x468
        0x000004fc:    e000        ..      B        0x500 ; QSPI_ReadReg + 50
        0x000004fe:    bf00        ..      NOP      
        0x00000500:    68a8        .h      LDR      r0,[r5,#8]
        0x00000502:    04c0        ..      LSLS     r0,r0,#19
        0x00000504:    0ec1        ..      LSRS     r1,r0,#27
        0x00000506:    42a1        .B      CMP      r1,r4
        0x00000508:    d3f9        ..      BCC      0x4fe ; QSPI_ReadReg + 48
        0x0000050a:    2000        .       MOVS     r0,#0
        0x0000050c:    9000        ..      STR      r0,[sp,#0]
        0x0000050e:    3520         5      ADDS     r5,r5,#0x20
        0x00000510:    4668        hF      MOV      r0,sp
        0x00000512:    e004        ..      B        0x51e ; QSPI_ReadReg + 80
        0x00000514:    782a        *x      LDRB     r2,[r5,#0]
        0x00000516:    1901        ..      ADDS     r1,r0,r4
        0x00000518:    3920         9      SUBS     r1,r1,#0x20
        0x0000051a:    77ca        .w      STRB     r2,[r1,#0x1f]
        0x0000051c:    1e64        d.      SUBS     r4,r4,#1
        0x0000051e:    2c00        .,      CMP      r4,#0
        0x00000520:    dcf8        ..      BGT      0x514 ; QSPI_ReadReg + 70
        0x00000522:    9800        ..      LDR      r0,[sp,#0]
        0x00000524:    b008        ..      ADD      sp,sp,#0x20
        0x00000526:    bd30        0.      POP      {r4,r5,pc}
    QSPI_FlashBusy
        0x00000528:    b500        ..      PUSH     {lr}
        0x0000052a:    2201        ."      MOVS     r2,#1
        0x0000052c:    2105        .!      MOVS     r1,#5
        0x0000052e:    f7ffffce    ....    BL       QSPI_ReadReg ; 0x4ce
        0x00000532:    07c0        ..      LSLS     r0,r0,#31
        0x00000534:    0fc0        ..      LSRS     r0,r0,#31
        0x00000536:    bd00        ..      POP      {pc}
    QSPI_WriteReg
        0x00000538:    b53f        ?.      PUSH     {r0-r5,lr}
        0x0000053a:    b087        ..      SUB      sp,sp,#0x1c
        0x0000053c:    4605        .F      MOV      r5,r0
        0x0000053e:    460a        .F      MOV      r2,r1
        0x00000540:    461c        .F      MOV      r4,r3
        0x00000542:    4668        hF      MOV      r0,sp
        0x00000544:    f7ffff82    ....    BL       QSPI_CmdStructClear ; 0x44c
        0x00000548:    2001        .       MOVS     r0,#1
        0x0000054a:    466b        kF      MOV      r3,sp
        0x0000054c:    7058        Xp      STRB     r0,[r3,#1]
        0x0000054e:    701a        .p      STRB     r2,[r3,#0]
        0x00000550:    2000        .       MOVS     r0,#0
        0x00000552:    7218        .r      STRB     r0,[r3,#8]
        0x00000554:    7418        .t      STRB     r0,[r3,#0x10]
        0x00000556:    7498        .t      STRB     r0,[r3,#0x12]
        0x00000558:    2c00        .,      CMP      r4,#0
        0x0000055a:    d001        ..      BEQ      0x560 ; QSPI_WriteReg + 40
        0x0000055c:    2001        .       MOVS     r0,#1
        0x0000055e:    e000        ..      B        0x562 ; QSPI_WriteReg + 42
        0x00000560:    2000        .       MOVS     r0,#0
        0x00000562:    4669        iF      MOV      r1,sp
        0x00000564:    74c8        .t      STRB     r0,[r1,#0x13]
        0x00000566:    9405        ..      STR      r4,[sp,#0x14]
        0x00000568:    466a        jF      MOV      r2,sp
        0x0000056a:    2100        .!      MOVS     r1,#0
        0x0000056c:    4628        (F      MOV      r0,r5
        0x0000056e:    f7ffff7b    ..{.    BL       QSPI_Command ; 0x468
        0x00000572:    462a        *F      MOV      r2,r5
        0x00000574:    a809        ..      ADD      r0,sp,#0x24
        0x00000576:    3220         2      ADDS     r2,r2,#0x20
        0x00000578:    e004        ..      B        0x584 ; QSPI_WriteReg + 76
        0x0000057a:    1901        ..      ADDS     r1,r0,r4
        0x0000057c:    3920         9      SUBS     r1,r1,#0x20
        0x0000057e:    7fc9        ..      LDRB     r1,[r1,#0x1f]
        0x00000580:    7011        .p      STRB     r1,[r2,#0]
        0x00000582:    1e64        d.      SUBS     r4,r4,#1
        0x00000584:    2c00        .,      CMP      r4,#0
        0x00000586:    dcf8        ..      BGT      0x57a ; QSPI_WriteReg + 66
        0x00000588:    e000        ..      B        0x58c ; QSPI_WriteReg + 84
        0x0000058a:    bf00        ..      NOP      
        0x0000058c:    68a8        .h      LDR      r0,[r5,#8]
        0x0000058e:    0680        ..      LSLS     r0,r0,#26
        0x00000590:    0fc0        ..      LSRS     r0,r0,#31
        0x00000592:    2800        .(      CMP      r0,#0
        0x00000594:    d1f9        ..      BNE      0x58a ; QSPI_WriteReg + 82
        0x00000596:    b00b        ..      ADD      sp,sp,#0x2c
        0x00000598:    bd30        0.      POP      {r4,r5,pc}
    QSPI_Erase_
        0x0000059a:    b570        p.      PUSH     {r4-r6,lr}
        0x0000059c:    b087        ..      SUB      sp,sp,#0x1c
        0x0000059e:    4604        .F      MOV      r4,r0
        0x000005a0:    460e        .F      MOV      r6,r1
        0x000005a2:    461d        .F      MOV      r5,r3
        0x000005a4:    4668        hF      MOV      r0,sp
        0x000005a6:    f7ffff51    ..Q.    BL       QSPI_CmdStructClear ; 0x44c
        0x000005aa:    488d        .H      LDR      r0,[pc,#564] ; [0x7e0] = 0x4
        0x000005ac:    2a04        .*      CMP      r2,#4
        0x000005ae:    4448        HD      ADD      r0,r0,r9
        0x000005b0:    d002        ..      BEQ      0x5b8 ; QSPI_Erase_ + 30
        0x000005b2:    2a40        @*      CMP      r2,#0x40
        0x000005b4:    d10b        ..      BNE      0x5ce ; QSPI_Erase_ + 52
        0x000005b6:    e006        ..      B        0x5c6 ; QSPI_Erase_ + 44
        0x000005b8:    7801        .x      LDRB     r1,[r0,#0]
        0x000005ba:    2903        .)      CMP      r1,#3
        0x000005bc:    d001        ..      BEQ      0x5c2 ; QSPI_Erase_ + 40
        0x000005be:    2320         #      MOVS     r3,#0x20
        0x000005c0:    e005        ..      B        0x5ce ; QSPI_Erase_ + 52
        0x000005c2:    2321        !#      MOVS     r3,#0x21
        0x000005c4:    e003        ..      B        0x5ce ; QSPI_Erase_ + 52
        0x000005c6:    7801        .x      LDRB     r1,[r0,#0]
        0x000005c8:    2903        .)      CMP      r1,#3
        0x000005ca:    d018        ..      BEQ      0x5fe ; QSPI_Erase_ + 100
        0x000005cc:    23d8        .#      MOVS     r3,#0xd8
        0x000005ce:    2101        .!      MOVS     r1,#1
        0x000005d0:    466a        jF      MOV      r2,sp
        0x000005d2:    7051        Qp      STRB     r1,[r2,#1]
        0x000005d4:    7013        .p      STRB     r3,[r2,#0]
        0x000005d6:    7211        .r      STRB     r1,[r2,#8]
        0x000005d8:    7800        .x      LDRB     r0,[r0,#0]
        0x000005da:    7250        Pr      STRB     r0,[r2,#9]
        0x000005dc:    9601        ..      STR      r6,[sp,#4]
        0x000005de:    2000        .       MOVS     r0,#0
        0x000005e0:    7410        .t      STRB     r0,[r2,#0x10]
        0x000005e2:    7490        .t      STRB     r0,[r2,#0x12]
        0x000005e4:    74d0        .t      STRB     r0,[r2,#0x13]
        0x000005e6:    2300        .#      MOVS     r3,#0
        0x000005e8:    461a        .F      MOV      r2,r3
        0x000005ea:    2106        .!      MOVS     r1,#6
        0x000005ec:    4620         F      MOV      r0,r4
        0x000005ee:    f7ffffa3    ....    BL       QSPI_WriteReg ; 0x538
        0x000005f2:    466a        jF      MOV      r2,sp
        0x000005f4:    2100        .!      MOVS     r1,#0
        0x000005f6:    4620         F      MOV      r0,r4
        0x000005f8:    f7ffff36    ..6.    BL       QSPI_Command ; 0x468
        0x000005fc:    e002        ..      B        0x604 ; QSPI_Erase_ + 106
        0x000005fe:    23dc        .#      MOVS     r3,#0xdc
        0x00000600:    e7e5        ..      B        0x5ce ; QSPI_Erase_ + 52
        0x00000602:    bf00        ..      NOP      
        0x00000604:    68a0        .h      LDR      r0,[r4,#8]
        0x00000606:    0680        ..      LSLS     r0,r0,#26
        0x00000608:    0fc1        ..      LSRS     r1,r0,#31
        0x0000060a:    2900        .)      CMP      r1,#0
        0x0000060c:    d1f9        ..      BNE      0x602 ; QSPI_Erase_ + 104
        0x0000060e:    2d00        .-      CMP      r5,#0
        0x00000610:    d102        ..      BNE      0x618 ; QSPI_Erase_ + 126
        0x00000612:    b007        ..      ADD      sp,sp,#0x1c
        0x00000614:    bd70        p.      POP      {r4-r6,pc}
        0x00000616:    bf00        ..      NOP      
        0x00000618:    4620         F      MOV      r0,r4
        0x0000061a:    f7ffff85    ....    BL       QSPI_FlashBusy ; 0x528
        0x0000061e:    2800        .(      CMP      r0,#0
        0x00000620:    d1f9        ..      BNE      0x616 ; QSPI_Erase_ + 124
        0x00000622:    e7f6        ..      B        0x612 ; QSPI_Erase_ + 120
    QSPI_Write_
        0x00000624:    b5ff        ..      PUSH     {r0-r7,lr}
        0x00000626:    b089        ..      SUB      sp,sp,#0x24
        0x00000628:    9c12        ..      LDR      r4,[sp,#0x48]
        0x0000062a:    4607        .F      MOV      r7,r0
        0x0000062c:    4615        .F      MOV      r5,r2
        0x0000062e:    461e        .F      MOV      r6,r3
        0x00000630:    a801        ..      ADD      r0,sp,#4
        0x00000632:    f7ffff0b    ....    BL       QSPI_CmdStructClear ; 0x44c
        0x00000636:    486a        jH      LDR      r0,[pc,#424] ; [0x7e0] = 0x4
        0x00000638:    2c01        .,      CMP      r4,#1
        0x0000063a:    4448        HD      ADD      r0,r0,r9
        0x0000063c:    d002        ..      BEQ      0x644 ; QSPI_Write_ + 32
        0x0000063e:    2c04        .,      CMP      r4,#4
        0x00000640:    d10d        ..      BNE      0x65e ; QSPI_Write_ + 58
        0x00000642:    e007        ..      B        0x654 ; QSPI_Write_ + 48
        0x00000644:    7801        .x      LDRB     r1,[r0,#0]
        0x00000646:    2903        .)      CMP      r1,#3
        0x00000648:    d002        ..      BEQ      0x650 ; QSPI_Write_ + 44
        0x0000064a:    2202        ."      MOVS     r2,#2
        0x0000064c:    2301        .#      MOVS     r3,#1
        0x0000064e:    e006        ..      B        0x65e ; QSPI_Write_ + 58
        0x00000650:    2212        ."      MOVS     r2,#0x12
        0x00000652:    e7fb        ..      B        0x64c ; QSPI_Write_ + 40
        0x00000654:    7801        .x      LDRB     r1,[r0,#0]
        0x00000656:    2903        .)      CMP      r1,#3
        0x00000658:    d025        %.      BEQ      0x6a6 ; QSPI_Write_ + 130
        0x0000065a:    2232        2"      MOVS     r2,#0x32
        0x0000065c:    2303        .#      MOVS     r3,#3
        0x0000065e:    2101        .!      MOVS     r1,#1
        0x00000660:    466c        lF      MOV      r4,sp
        0x00000662:    7161        aq      STRB     r1,[r4,#5]
        0x00000664:    7122        "q      STRB     r2,[r4,#4]
        0x00000666:    7321        !s      STRB     r1,[r4,#0xc]
        0x00000668:    7800        .x      LDRB     r0,[r0,#0]
        0x0000066a:    7360        `s      STRB     r0,[r4,#0xd]
        0x0000066c:    980a        ..      LDR      r0,[sp,#0x28]
        0x0000066e:    9002        ..      STR      r0,[sp,#8]
        0x00000670:    2000        .       MOVS     r0,#0
        0x00000672:    7520         u      STRB     r0,[r4,#0x14]
        0x00000674:    75a0        .u      STRB     r0,[r4,#0x16]
        0x00000676:    75e3        .u      STRB     r3,[r4,#0x17]
        0x00000678:    9606        ..      STR      r6,[sp,#0x18]
        0x0000067a:    2300        .#      MOVS     r3,#0
        0x0000067c:    461a        .F      MOV      r2,r3
        0x0000067e:    2106        .!      MOVS     r1,#6
        0x00000680:    4638        8F      MOV      r0,r7
        0x00000682:    f7ffff59    ..Y.    BL       QSPI_WriteReg ; 0x538
        0x00000686:    aa01        ..      ADD      r2,sp,#4
        0x00000688:    2100        .!      MOVS     r1,#0
        0x0000068a:    4638        8F      MOV      r0,r7
        0x0000068c:    f7fffeec    ....    BL       QSPI_Command ; 0x468
        0x00000690:    9813        ..      LDR      r0,[sp,#0x4c]
        0x00000692:    2800        .(      CMP      r0,#0
        0x00000694:    d053        S.      BEQ      0x73e ; QSPI_Write_ + 282
        0x00000696:    4638        8F      MOV      r0,r7
        0x00000698:    3020         0      ADDS     r0,r0,#0x20
        0x0000069a:    07a9        ..      LSLS     r1,r5,#30
        0x0000069c:    9008        ..      STR      r0,[sp,#0x20]
        0x0000069e:    2900        .)      CMP      r1,#0
        0x000006a0:    d003        ..      BEQ      0x6aa ; QSPI_Write_ + 134
        0x000006a2:    2400        .$      MOVS     r4,#0
        0x000006a4:    e03b        ;.      B        0x71e ; QSPI_Write_ + 250
        0x000006a6:    2234        4"      MOVS     r2,#0x34
        0x000006a8:    e7d8        ..      B        0x65c ; QSPI_Write_ + 56
        0x000006aa:    08b0        ..      LSRS     r0,r6,#2
        0x000006ac:    9000        ..      STR      r0,[sp,#0]
        0x000006ae:    2400        .$      MOVS     r4,#0
        0x000006b0:    e009        ..      B        0x6c6 ; QSPI_Write_ + 162
        0x000006b2:    bf00        ..      NOP      
        0x000006b4:    4638        8F      MOV      r0,r7
        0x000006b6:    f000fa38    ..8.    BL       QSPI_FIFOSpace ; 0xb2a
        0x000006ba:    2804        .(      CMP      r0,#4
        0x000006bc:    d3f9        ..      BCC      0x6b2 ; QSPI_Write_ + 142
        0x000006be:    00a1        ..      LSLS     r1,r4,#2
        0x000006c0:    5868        hX      LDR      r0,[r5,r1]
        0x000006c2:    6238        8b      STR      r0,[r7,#0x20]
        0x000006c4:    1c64        d.      ADDS     r4,r4,#1
        0x000006c6:    9800        ..      LDR      r0,[sp,#0]
        0x000006c8:    4284        .B      CMP      r4,r0
        0x000006ca:    d3f3        ..      BCC      0x6b4 ; QSPI_Write_ + 144
        0x000006cc:    07b0        ..      LSLS     r0,r6,#30
        0x000006ce:    0f80        ..      LSRS     r0,r0,#30
        0x000006d0:    2802        .(      CMP      r0,#2
        0x000006d2:    d30b        ..      BCC      0x6ec ; QSPI_Write_ + 200
        0x000006d4:    9800        ..      LDR      r0,[sp,#0]
        0x000006d6:    0080        ..      LSLS     r0,r0,#2
        0x000006d8:    1944        D.      ADDS     r4,r0,r5
        0x000006da:    e000        ..      B        0x6de ; QSPI_Write_ + 186
        0x000006dc:    bf00        ..      NOP      
        0x000006de:    4638        8F      MOV      r0,r7
        0x000006e0:    f000fa23    ..#.    BL       QSPI_FIFOSpace ; 0xb2a
        0x000006e4:    2802        .(      CMP      r0,#2
        0x000006e6:    d3f9        ..      BCC      0x6dc ; QSPI_Write_ + 184
        0x000006e8:    8820         .      LDRH     r0,[r4,#0]
        0x000006ea:    8438        8.      STRH     r0,[r7,#0x20]
        0x000006ec:    07f0        ..      LSLS     r0,r6,#31
        0x000006ee:    d101        ..      BNE      0x6f4 ; QSPI_Write_ + 208
        0x000006f0:    e019        ..      B        0x726 ; QSPI_Write_ + 258
        0x000006f2:    bf00        ..      NOP      
        0x000006f4:    4638        8F      MOV      r0,r7
        0x000006f6:    f000fa18    ....    BL       QSPI_FIFOSpace ; 0xb2a
        0x000006fa:    2800        .(      CMP      r0,#0
        0x000006fc:    d0f9        ..      BEQ      0x6f2 ; QSPI_Write_ + 206
        0x000006fe:    19a8        ..      ADDS     r0,r5,r6
        0x00000700:    3820         8      SUBS     r0,r0,#0x20
        0x00000702:    7fc1        ..      LDRB     r1,[r0,#0x1f]
        0x00000704:    9808        ..      LDR      r0,[sp,#0x20]
        0x00000706:    7001        .p      STRB     r1,[r0,#0]
        0x00000708:    e00d        ..      B        0x726 ; QSPI_Write_ + 258
        0x0000070a:    bf00        ..      NOP      
        0x0000070c:    4638        8F      MOV      r0,r7
        0x0000070e:    f000fa0c    ....    BL       QSPI_FIFOSpace ; 0xb2a
        0x00000712:    2800        .(      CMP      r0,#0
        0x00000714:    d0f9        ..      BEQ      0x70a ; QSPI_Write_ + 230
        0x00000716:    9808        ..      LDR      r0,[sp,#0x20]
        0x00000718:    5d29        )]      LDRB     r1,[r5,r4]
        0x0000071a:    7001        .p      STRB     r1,[r0,#0]
        0x0000071c:    1c64        d.      ADDS     r4,r4,#1
        0x0000071e:    42b4        .B      CMP      r4,r6
        0x00000720:    d3f4        ..      BCC      0x70c ; QSPI_Write_ + 232
        0x00000722:    e000        ..      B        0x726 ; QSPI_Write_ + 258
        0x00000724:    bf00        ..      NOP      
        0x00000726:    68b8        .h      LDR      r0,[r7,#8]
        0x00000728:    0680        ..      LSLS     r0,r0,#26
        0x0000072a:    0fc0        ..      LSRS     r0,r0,#31
        0x0000072c:    2800        .(      CMP      r0,#0
        0x0000072e:    d1f9        ..      BNE      0x724 ; QSPI_Write_ + 256
        0x00000730:    e000        ..      B        0x734 ; QSPI_Write_ + 272
        0x00000732:    bf00        ..      NOP      
        0x00000734:    4638        8F      MOV      r0,r7
        0x00000736:    f7fffef7    ....    BL       QSPI_FlashBusy ; 0x528
        0x0000073a:    2800        .(      CMP      r0,#0
        0x0000073c:    d1f9        ..      BNE      0x732 ; QSPI_Write_ + 270
        0x0000073e:    b00d        ..      ADD      sp,sp,#0x34
        0x00000740:    bdf0        ..      POP      {r4-r7,pc}
    QSPI_Read_
        0x00000742:    b5ff        ..      PUSH     {r0-r7,lr}
        0x00000744:    b08b        ..      SUB      sp,sp,#0x2c
        0x00000746:    4615        .F      MOV      r5,r2
        0x00000748:    461e        .F      MOV      r6,r3
        0x0000074a:    9b14        ..      LDR      r3,[sp,#0x50]
        0x0000074c:    9a15        ..      LDR      r2,[sp,#0x54]
        0x0000074e:    4604        .F      MOV      r4,r0
        0x00000750:    a804        ..      ADD      r0,sp,#0x10
        0x00000752:    f7fffe7b    ..{.    BL       QSPI_CmdStructClear ; 0x44c
        0x00000756:    0119        ..      LSLS     r1,r3,#4
        0x00000758:    4311        .C      ORRS     r1,r1,r2
        0x0000075a:    2914        .)      CMP      r1,#0x14
        0x0000075c:    d046        F.      BEQ      0x7ec ; QSPI_Read_ + 170
        0x0000075e:    dc04        ..      BGT      0x76a ; QSPI_Read_ + 40
        0x00000760:    2911        .)      CMP      r1,#0x11
        0x00000762:    d007        ..      BEQ      0x774 ; QSPI_Read_ + 50
        0x00000764:    2912        .)      CMP      r1,#0x12
        0x00000766:    d161        a.      BNE      0x82c ; QSPI_Read_ + 234
        0x00000768:    e014        ..      B        0x794 ; QSPI_Read_ + 82
        0x0000076a:    2922        ")      CMP      r1,#0x22
        0x0000076c:    d022        ".      BEQ      0x7b4 ; QSPI_Read_ + 114
        0x0000076e:    2944        D)      CMP      r1,#0x44
        0x00000770:    d15c        \.      BNE      0x82c ; QSPI_Read_ + 234
        0x00000772:    e04b        K.      B        0x80c ; QSPI_Read_ + 202
        0x00000774:    481a        .H      LDR      r0,[pc,#104] ; [0x7e0] = 0x4
        0x00000776:    4448        HD      ADD      r0,r0,r9
        0x00000778:    7800        .x      LDRB     r0,[r0,#0]
        0x0000077a:    2803        .(      CMP      r0,#3
        0x0000077c:    d008        ..      BEQ      0x790 ; QSPI_Read_ + 78
        0x0000077e:    220b        ."      MOVS     r2,#0xb
        0x00000780:    2301        .#      MOVS     r3,#1
        0x00000782:    2000        .       MOVS     r0,#0
        0x00000784:    9002        ..      STR      r0,[sp,#8]
        0x00000786:    9001        ..      STR      r0,[sp,#4]
        0x00000788:    2008        .       MOVS     r0,#8
        0x0000078a:    9003        ..      STR      r0,[sp,#0xc]
        0x0000078c:    2701        .'      MOVS     r7,#1
        0x0000078e:    e04d        M.      B        0x82c ; QSPI_Read_ + 234
        0x00000790:    220c        ."      MOVS     r2,#0xc
        0x00000792:    e7f5        ..      B        0x780 ; QSPI_Read_ + 62
        0x00000794:    4812        .H      LDR      r0,[pc,#72] ; [0x7e0] = 0x4
        0x00000796:    4448        HD      ADD      r0,r0,r9
        0x00000798:    7800        .x      LDRB     r0,[r0,#0]
        0x0000079a:    2803        .(      CMP      r0,#3
        0x0000079c:    d008        ..      BEQ      0x7b0 ; QSPI_Read_ + 110
        0x0000079e:    223b        ;"      MOVS     r2,#0x3b
        0x000007a0:    2301        .#      MOVS     r3,#1
        0x000007a2:    2000        .       MOVS     r0,#0
        0x000007a4:    9002        ..      STR      r0,[sp,#8]
        0x000007a6:    9001        ..      STR      r0,[sp,#4]
        0x000007a8:    2008        .       MOVS     r0,#8
        0x000007aa:    9003        ..      STR      r0,[sp,#0xc]
        0x000007ac:    2702        .'      MOVS     r7,#2
        0x000007ae:    e03d        =.      B        0x82c ; QSPI_Read_ + 234
        0x000007b0:    223c        <"      MOVS     r2,#0x3c
        0x000007b2:    e7f5        ..      B        0x7a0 ; QSPI_Read_ + 94
        0x000007b4:    480a        .H      LDR      r0,[pc,#40] ; [0x7e0] = 0x4
        0x000007b6:    4448        HD      ADD      r0,r0,r9
        0x000007b8:    7800        .x      LDRB     r0,[r0,#0]
        0x000007ba:    2803        .(      CMP      r0,#3
        0x000007bc:    d014        ..      BEQ      0x7e8 ; QSPI_Read_ + 166
        0x000007be:    22bb        ."      MOVS     r2,#0xbb
        0x000007c0:    2302        .#      MOVS     r3,#2
        0x000007c2:    2002        .       MOVS     r0,#2
        0x000007c4:    9002        ..      STR      r0,[sp,#8]
        0x000007c6:    2000        .       MOVS     r0,#0
        0x000007c8:    9001        ..      STR      r0,[sp,#4]
        0x000007ca:    20ff        .       MOVS     r0,#0xff
        0x000007cc:    9000        ..      STR      r0,[sp,#0]
        0x000007ce:    2000        .       MOVS     r0,#0
        0x000007d0:    9003        ..      STR      r0,[sp,#0xc]
        0x000007d2:    2702        .'      MOVS     r7,#2
        0x000007d4:    e02a        *.      B        0x82c ; QSPI_Read_ + 234
    $d
        0x000007d6:    0000        ..      DCW    0
        0x000007d8:    bfffe800    ....    DCD    3221219328
        0x000007dc:    00000100    ....    DCD    256
        0x000007e0:    00000004    ....    DCD    4
        0x000007e4:    e000e100    ....    DCD    3758153984
    $t
        0x000007e8:    22bc        ."      MOVS     r2,#0xbc
        0x000007ea:    e7e9        ..      B        0x7c0 ; QSPI_Read_ + 126
        0x000007ec:    48d2        .H      LDR      r0,[pc,#840] ; [0xb38] = 0x4
        0x000007ee:    4448        HD      ADD      r0,r0,r9
        0x000007f0:    7800        .x      LDRB     r0,[r0,#0]
        0x000007f2:    2803        .(      CMP      r0,#3
        0x000007f4:    d008        ..      BEQ      0x808 ; QSPI_Read_ + 198
        0x000007f6:    226b        k"      MOVS     r2,#0x6b
        0x000007f8:    2301        .#      MOVS     r3,#1
        0x000007fa:    2000        .       MOVS     r0,#0
        0x000007fc:    9002        ..      STR      r0,[sp,#8]
        0x000007fe:    9001        ..      STR      r0,[sp,#4]
        0x00000800:    2008        .       MOVS     r0,#8
        0x00000802:    9003        ..      STR      r0,[sp,#0xc]
        0x00000804:    2703        .'      MOVS     r7,#3
        0x00000806:    e011        ..      B        0x82c ; QSPI_Read_ + 234
        0x00000808:    226c        l"      MOVS     r2,#0x6c
        0x0000080a:    e7f5        ..      B        0x7f8 ; QSPI_Read_ + 182
        0x0000080c:    48ca        .H      LDR      r0,[pc,#808] ; [0xb38] = 0x4
        0x0000080e:    4448        HD      ADD      r0,r0,r9
        0x00000810:    7800        .x      LDRB     r0,[r0,#0]
        0x00000812:    2803        .(      CMP      r0,#3
        0x00000814:    d031        1.      BEQ      0x87a ; QSPI_Read_ + 312
        0x00000816:    22eb        ."      MOVS     r2,#0xeb
        0x00000818:    2303        .#      MOVS     r3,#3
        0x0000081a:    2003        .       MOVS     r0,#3
        0x0000081c:    9002        ..      STR      r0,[sp,#8]
        0x0000081e:    2000        .       MOVS     r0,#0
        0x00000820:    9001        ..      STR      r0,[sp,#4]
        0x00000822:    20ff        .       MOVS     r0,#0xff
        0x00000824:    9000        ..      STR      r0,[sp,#0]
        0x00000826:    2004        .       MOVS     r0,#4
        0x00000828:    9003        ..      STR      r0,[sp,#0xc]
        0x0000082a:    2703        .'      MOVS     r7,#3
        0x0000082c:    2101        .!      MOVS     r1,#1
        0x0000082e:    4668        hF      MOV      r0,sp
        0x00000830:    7441        At      STRB     r1,[r0,#0x11]
        0x00000832:    7402        .t      STRB     r2,[r0,#0x10]
        0x00000834:    7603        .v      STRB     r3,[r0,#0x18]
        0x00000836:    48c0        .H      LDR      r0,[pc,#768] ; [0xb38] = 0x4
        0x00000838:    4448        HD      ADD      r0,r0,r9
        0x0000083a:    7801        .x      LDRB     r1,[r0,#0]
        0x0000083c:    4668        hF      MOV      r0,sp
        0x0000083e:    7641        Av      STRB     r1,[r0,#0x19]
        0x00000840:    980c        ..      LDR      r0,[sp,#0x30]
        0x00000842:    9005        ..      STR      r0,[sp,#0x14]
        0x00000844:    a808        ..      ADD      r0,sp,#0x20
        0x00000846:    9902        ..      LDR      r1,[sp,#8]
        0x00000848:    7001        .p      STRB     r1,[r0,#0]
        0x0000084a:    9901        ..      LDR      r1,[sp,#4]
        0x0000084c:    7041        Ap      STRB     r1,[r0,#1]
        0x0000084e:    9800        ..      LDR      r0,[sp,#0]
        0x00000850:    9007        ..      STR      r0,[sp,#0x1c]
        0x00000852:    a808        ..      ADD      r0,sp,#0x20
        0x00000854:    9903        ..      LDR      r1,[sp,#0xc]
        0x00000856:    7081        .p      STRB     r1,[r0,#2]
        0x00000858:    70c7        .p      STRB     r7,[r0,#3]
        0x0000085a:    9609        ..      STR      r6,[sp,#0x24]
        0x0000085c:    aa04        ..      ADD      r2,sp,#0x10
        0x0000085e:    2101        .!      MOVS     r1,#1
        0x00000860:    4620         F      MOV      r0,r4
        0x00000862:    f7fffe01    ....    BL       QSPI_Command ; 0x468
        0x00000866:    9816        ..      LDR      r0,[sp,#0x58]
        0x00000868:    2800        .(      CMP      r0,#0
        0x0000086a:    d047        G.      BEQ      0x8fc ; QSPI_Read_ + 442
        0x0000086c:    4621        !F      MOV      r1,r4
        0x0000086e:    07a8        ..      LSLS     r0,r5,#30
        0x00000870:    3120         1      ADDS     r1,r1,#0x20
        0x00000872:    2800        .(      CMP      r0,#0
        0x00000874:    d003        ..      BEQ      0x87e ; QSPI_Read_ + 316
        0x00000876:    2000        .       MOVS     r0,#0
        0x00000878:    e03a        :.      B        0x8f0 ; QSPI_Read_ + 430
        0x0000087a:    22ec        ."      MOVS     r2,#0xec
        0x0000087c:    e7cc        ..      B        0x818 ; QSPI_Read_ + 214
        0x0000087e:    08b0        ..      LSRS     r0,r6,#2
        0x00000880:    4684        .F      MOV      r12,r0
        0x00000882:    2000        .       MOVS     r0,#0
        0x00000884:    e00b        ..      B        0x89e ; QSPI_Read_ + 348
        0x00000886:    462a        *F      MOV      r2,r5
        0x00000888:    e000        ..      B        0x88c ; QSPI_Read_ + 330
        0x0000088a:    bf00        ..      NOP      
        0x0000088c:    68a3        .h      LDR      r3,[r4,#8]
        0x0000088e:    04db        ..      LSLS     r3,r3,#19
        0x00000890:    0edb        ..      LSRS     r3,r3,#27
        0x00000892:    2b04        .+      CMP      r3,#4
        0x00000894:    d3f9        ..      BCC      0x88a ; QSPI_Read_ + 328
        0x00000896:    6a23        #j      LDR      r3,[r4,#0x20]
        0x00000898:    0087        ..      LSLS     r7,r0,#2
        0x0000089a:    51d3        .Q      STR      r3,[r2,r7]
        0x0000089c:    1c40        @.      ADDS     r0,r0,#1
        0x0000089e:    4560        `E      CMP      r0,r12
        0x000008a0:    d3f1        ..      BCC      0x886 ; QSPI_Read_ + 324
        0x000008a2:    07b0        ..      LSLS     r0,r6,#30
        0x000008a4:    0f80        ..      LSRS     r0,r0,#30
        0x000008a6:    2802        .(      CMP      r0,#2
        0x000008a8:    d30b        ..      BCC      0x8c2 ; QSPI_Read_ + 384
        0x000008aa:    4660        `F      MOV      r0,r12
        0x000008ac:    0080        ..      LSLS     r0,r0,#2
        0x000008ae:    1942        B.      ADDS     r2,r0,r5
        0x000008b0:    e000        ..      B        0x8b4 ; QSPI_Read_ + 370
        0x000008b2:    bf00        ..      NOP      
        0x000008b4:    68a0        .h      LDR      r0,[r4,#8]
        0x000008b6:    04c0        ..      LSLS     r0,r0,#19
        0x000008b8:    0ec0        ..      LSRS     r0,r0,#27
        0x000008ba:    2802        .(      CMP      r0,#2
        0x000008bc:    d3f9        ..      BCC      0x8b2 ; QSPI_Read_ + 368
        0x000008be:    8c20         .      LDRH     r0,[r4,#0x20]
        0x000008c0:    8010        ..      STRH     r0,[r2,#0]
        0x000008c2:    07f0        ..      LSLS     r0,r6,#31
        0x000008c4:    d101        ..      BNE      0x8ca ; QSPI_Read_ + 392
        0x000008c6:    e015        ..      B        0x8f4 ; QSPI_Read_ + 434
        0x000008c8:    bf00        ..      NOP      
        0x000008ca:    68a0        .h      LDR      r0,[r4,#8]
        0x000008cc:    04c0        ..      LSLS     r0,r0,#19
        0x000008ce:    0ec0        ..      LSRS     r0,r0,#27
        0x000008d0:    2800        .(      CMP      r0,#0
        0x000008d2:    d0f9        ..      BEQ      0x8c8 ; QSPI_Read_ + 390
        0x000008d4:    7809        .x      LDRB     r1,[r1,#0]
        0x000008d6:    19a8        ..      ADDS     r0,r5,r6
        0x000008d8:    3820         8      SUBS     r0,r0,#0x20
        0x000008da:    77c1        .w      STRB     r1,[r0,#0x1f]
        0x000008dc:    e00a        ..      B        0x8f4 ; QSPI_Read_ + 434
        0x000008de:    bf00        ..      NOP      
        0x000008e0:    68a2        .h      LDR      r2,[r4,#8]
        0x000008e2:    04d2        ..      LSLS     r2,r2,#19
        0x000008e4:    0ed2        ..      LSRS     r2,r2,#27
        0x000008e6:    2a00        .*      CMP      r2,#0
        0x000008e8:    d0f9        ..      BEQ      0x8de ; QSPI_Read_ + 412
        0x000008ea:    780a        .x      LDRB     r2,[r1,#0]
        0x000008ec:    542a        *T      STRB     r2,[r5,r0]
        0x000008ee:    1c40        @.      ADDS     r0,r0,#1
        0x000008f0:    42b0        .B      CMP      r0,r6
        0x000008f2:    d3f5        ..      BCC      0x8e0 ; QSPI_Read_ + 414
        0x000008f4:    6820         h      LDR      r0,[r4,#0]
        0x000008f6:    2102        .!      MOVS     r1,#2
        0x000008f8:    4308        .C      ORRS     r0,r0,r1
        0x000008fa:    6020         `      STR      r0,[r4,#0]
        0x000008fc:    b00f        ..      ADD      sp,sp,#0x3c
        0x000008fe:    bdf0        ..      POP      {r4-r7,pc}
    QSPI_QuadState
        0x00000900:    b500        ..      PUSH     {lr}
        0x00000902:    2201        ."      MOVS     r2,#1
        0x00000904:    2135        5!      MOVS     r1,#0x35
        0x00000906:    f7fffde2    ....    BL       QSPI_ReadReg ; 0x4ce
        0x0000090a:    0780        ..      LSLS     r0,r0,#30
        0x0000090c:    0fc0        ..      LSRS     r0,r0,#31
        0x0000090e:    bd00        ..      POP      {pc}
    QSPI_QuadSwitch
        0x00000910:    b570        p.      PUSH     {r4-r6,lr}
        0x00000912:    4605        .F      MOV      r5,r0
        0x00000914:    460e        .F      MOV      r6,r1
        0x00000916:    2201        ."      MOVS     r2,#1
        0x00000918:    2135        5!      MOVS     r1,#0x35
        0x0000091a:    4628        (F      MOV      r0,r5
        0x0000091c:    f7fffdd7    ....    BL       QSPI_ReadReg ; 0x4ce
        0x00000920:    b2c4        ..      UXTB     r4,r0
        0x00000922:    2e00        ..      CMP      r6,#0
        0x00000924:    d002        ..      BEQ      0x92c ; QSPI_QuadSwitch + 28
        0x00000926:    2002        .       MOVS     r0,#2
        0x00000928:    4304        .C      ORRS     r4,r4,r0
        0x0000092a:    e001        ..      B        0x930 ; QSPI_QuadSwitch + 32
        0x0000092c:    20fd        .       MOVS     r0,#0xfd
        0x0000092e:    4004        .@      ANDS     r4,r4,r0
        0x00000930:    2300        .#      MOVS     r3,#0
        0x00000932:    461a        .F      MOV      r2,r3
        0x00000934:    2106        .!      MOVS     r1,#6
        0x00000936:    4628        (F      MOV      r0,r5
        0x00000938:    f7fffdfe    ....    BL       QSPI_WriteReg ; 0x538
        0x0000093c:    2301        .#      MOVS     r3,#1
        0x0000093e:    4622        "F      MOV      r2,r4
        0x00000940:    2131        1!      MOVS     r1,#0x31
        0x00000942:    4628        (F      MOV      r0,r5
        0x00000944:    f7fffdf8    ....    BL       QSPI_WriteReg ; 0x538
        0x00000948:    e000        ..      B        0x94c ; QSPI_QuadSwitch + 60
        0x0000094a:    bf00        ..      NOP      
        0x0000094c:    4628        (F      MOV      r0,r5
        0x0000094e:    f7fffdeb    ....    BL       QSPI_FlashBusy ; 0x528
        0x00000952:    2800        .(      CMP      r0,#0
        0x00000954:    d1f9        ..      BNE      0x94a ; QSPI_QuadSwitch + 58
        0x00000956:    bd70        p.      POP      {r4-r6,pc}
    QSPI_INTEn
        0x00000958:    6802        .h      LDR      r2,[r0,#0]
        0x0000095a:    0409        ..      LSLS     r1,r1,#16
        0x0000095c:    430a        .C      ORRS     r2,r2,r1
        0x0000095e:    6002        .`      STR      r2,[r0,#0]
        0x00000960:    4770        pG      BX       lr
    QSPI_INTDis
        0x00000962:    6802        .h      LDR      r2,[r0,#0]
        0x00000964:    0409        ..      LSLS     r1,r1,#16
        0x00000966:    438a        .C      BICS     r2,r2,r1
        0x00000968:    6002        .`      STR      r2,[r0,#0]
        0x0000096a:    4770        pG      BX       lr
    QSPI_INTClr
        0x0000096c:    60c1        .`      STR      r1,[r0,#0xc]
        0x0000096e:    4770        pG      BX       lr
    QSPI_INTStat
        0x00000970:    6880        .h      LDR      r0,[r0,#8]
        0x00000972:    4008        .@      ANDS     r0,r0,r1
        0x00000974:    4770        pG      BX       lr
    QSPI_SPI_Write_
        0x00000976:    b5f0        ..      PUSH     {r4-r7,lr}
        0x00000978:    b089        ..      SUB      sp,sp,#0x24
        0x0000097a:    9c0e        ..      LDR      r4,[sp,#0x38]
        0x0000097c:    4607        .F      MOV      r7,r0
        0x0000097e:    460d        .F      MOV      r5,r1
        0x00000980:    4616        .F      MOV      r6,r2
        0x00000982:    a801        ..      ADD      r0,sp,#4
        0x00000984:    f7fffd62    ..b.    BL       QSPI_CmdStructClear ; 0x44c
        0x00000988:    2000        .       MOVS     r0,#0
        0x0000098a:    4669        iF      MOV      r1,sp
        0x0000098c:    7148        Hq      STRB     r0,[r1,#5]
        0x0000098e:    7308        .s      STRB     r0,[r1,#0xc]
        0x00000990:    7508        .u      STRB     r0,[r1,#0x14]
        0x00000992:    7588        .u      STRB     r0,[r1,#0x16]
        0x00000994:    2b01        .+      CMP      r3,#1
        0x00000996:    d014        ..      BEQ      0x9c2 ; QSPI_SPI_Write_ + 76
        0x00000998:    2b02        .+      CMP      r3,#2
        0x0000099a:    d014        ..      BEQ      0x9c6 ; QSPI_SPI_Write_ + 80
        0x0000099c:    2003        .       MOVS     r0,#3
        0x0000099e:    4669        iF      MOV      r1,sp
        0x000009a0:    75c8        .u      STRB     r0,[r1,#0x17]
        0x000009a2:    9606        ..      STR      r6,[sp,#0x18]
        0x000009a4:    aa01        ..      ADD      r2,sp,#4
        0x000009a6:    2100        .!      MOVS     r1,#0
        0x000009a8:    4638        8F      MOV      r0,r7
        0x000009aa:    f7fffd5d    ..].    BL       QSPI_Command ; 0x468
        0x000009ae:    2c00        .,      CMP      r4,#0
        0x000009b0:    d04e        N.      BEQ      0xa50 ; QSPI_SPI_Write_ + 218
        0x000009b2:    4638        8F      MOV      r0,r7
        0x000009b4:    3020         0      ADDS     r0,r0,#0x20
        0x000009b6:    07a9        ..      LSLS     r1,r5,#30
        0x000009b8:    9008        ..      STR      r0,[sp,#0x20]
        0x000009ba:    2900        .)      CMP      r1,#0
        0x000009bc:    d005        ..      BEQ      0x9ca ; QSPI_SPI_Write_ + 84
        0x000009be:    2400        .$      MOVS     r4,#0
        0x000009c0:    e03d        =.      B        0xa3e ; QSPI_SPI_Write_ + 200
        0x000009c2:    2001        .       MOVS     r0,#1
        0x000009c4:    e7eb        ..      B        0x99e ; QSPI_SPI_Write_ + 40
        0x000009c6:    2002        .       MOVS     r0,#2
        0x000009c8:    e7e9        ..      B        0x99e ; QSPI_SPI_Write_ + 40
        0x000009ca:    08b0        ..      LSRS     r0,r6,#2
        0x000009cc:    9000        ..      STR      r0,[sp,#0]
        0x000009ce:    2400        .$      MOVS     r4,#0
        0x000009d0:    e009        ..      B        0x9e6 ; QSPI_SPI_Write_ + 112
        0x000009d2:    bf00        ..      NOP      
        0x000009d4:    4638        8F      MOV      r0,r7
        0x000009d6:    f000f8a8    ....    BL       QSPI_FIFOSpace ; 0xb2a
        0x000009da:    2804        .(      CMP      r0,#4
        0x000009dc:    d3f9        ..      BCC      0x9d2 ; QSPI_SPI_Write_ + 92
        0x000009de:    00a1        ..      LSLS     r1,r4,#2
        0x000009e0:    5868        hX      LDR      r0,[r5,r1]
        0x000009e2:    6238        8b      STR      r0,[r7,#0x20]
        0x000009e4:    1c64        d.      ADDS     r4,r4,#1
        0x000009e6:    9800        ..      LDR      r0,[sp,#0]
        0x000009e8:    4284        .B      CMP      r4,r0
        0x000009ea:    d3f3        ..      BCC      0x9d4 ; QSPI_SPI_Write_ + 94
        0x000009ec:    07b0        ..      LSLS     r0,r6,#30
        0x000009ee:    0f80        ..      LSRS     r0,r0,#30
        0x000009f0:    2802        .(      CMP      r0,#2
        0x000009f2:    d30b        ..      BCC      0xa0c ; QSPI_SPI_Write_ + 150
        0x000009f4:    9800        ..      LDR      r0,[sp,#0]
        0x000009f6:    0080        ..      LSLS     r0,r0,#2
        0x000009f8:    1944        D.      ADDS     r4,r0,r5
        0x000009fa:    e000        ..      B        0x9fe ; QSPI_SPI_Write_ + 136
        0x000009fc:    bf00        ..      NOP      
        0x000009fe:    4638        8F      MOV      r0,r7
        0x00000a00:    f000f893    ....    BL       QSPI_FIFOSpace ; 0xb2a
        0x00000a04:    2802        .(      CMP      r0,#2
        0x00000a06:    d3f9        ..      BCC      0x9fc ; QSPI_SPI_Write_ + 134
        0x00000a08:    8820         .      LDRH     r0,[r4,#0]
        0x00000a0a:    8438        8.      STRH     r0,[r7,#0x20]
        0x00000a0c:    07f0        ..      LSLS     r0,r6,#31
        0x00000a0e:    d101        ..      BNE      0xa14 ; QSPI_SPI_Write_ + 158
        0x00000a10:    e019        ..      B        0xa46 ; QSPI_SPI_Write_ + 208
        0x00000a12:    bf00        ..      NOP      
        0x00000a14:    4638        8F      MOV      r0,r7
        0x00000a16:    f000f888    ....    BL       QSPI_FIFOSpace ; 0xb2a
        0x00000a1a:    2800        .(      CMP      r0,#0
        0x00000a1c:    d0f9        ..      BEQ      0xa12 ; QSPI_SPI_Write_ + 156
        0x00000a1e:    19a8        ..      ADDS     r0,r5,r6
        0x00000a20:    3820         8      SUBS     r0,r0,#0x20
        0x00000a22:    7fc1        ..      LDRB     r1,[r0,#0x1f]
        0x00000a24:    9808        ..      LDR      r0,[sp,#0x20]
        0x00000a26:    7001        .p      STRB     r1,[r0,#0]
        0x00000a28:    e00d        ..      B        0xa46 ; QSPI_SPI_Write_ + 208
        0x00000a2a:    bf00        ..      NOP      
        0x00000a2c:    4638        8F      MOV      r0,r7
        0x00000a2e:    f000f87c    ..|.    BL       QSPI_FIFOSpace ; 0xb2a
        0x00000a32:    2800        .(      CMP      r0,#0
        0x00000a34:    d0f9        ..      BEQ      0xa2a ; QSPI_SPI_Write_ + 180
        0x00000a36:    9808        ..      LDR      r0,[sp,#0x20]
        0x00000a38:    5d29        )]      LDRB     r1,[r5,r4]
        0x00000a3a:    7001        .p      STRB     r1,[r0,#0]
        0x00000a3c:    1c64        d.      ADDS     r4,r4,#1
        0x00000a3e:    42b4        .B      CMP      r4,r6
        0x00000a40:    d3f4        ..      BCC      0xa2c ; QSPI_SPI_Write_ + 182
        0x00000a42:    e000        ..      B        0xa46 ; QSPI_SPI_Write_ + 208
        0x00000a44:    bf00        ..      NOP      
        0x00000a46:    68b8        .h      LDR      r0,[r7,#8]
        0x00000a48:    0680        ..      LSLS     r0,r0,#26
        0x00000a4a:    0fc0        ..      LSRS     r0,r0,#31
        0x00000a4c:    2800        .(      CMP      r0,#0
        0x00000a4e:    d1f9        ..      BNE      0xa44 ; QSPI_SPI_Write_ + 206
        0x00000a50:    b009        ..      ADD      sp,sp,#0x24
        0x00000a52:    bdf0        ..      POP      {r4-r7,pc}
    QSPI_SPI_Read_
        0x00000a54:    b5f0        ..      PUSH     {r4-r7,lr}
        0x00000a56:    b087        ..      SUB      sp,sp,#0x1c
        0x00000a58:    9f0c        ..      LDR      r7,[sp,#0x30]
        0x00000a5a:    4604        .F      MOV      r4,r0
        0x00000a5c:    460d        .F      MOV      r5,r1
        0x00000a5e:    4616        .F      MOV      r6,r2
        0x00000a60:    4668        hF      MOV      r0,sp
        0x00000a62:    f7fffcf3    ....    BL       QSPI_CmdStructClear ; 0x44c
        0x00000a66:    2000        .       MOVS     r0,#0
        0x00000a68:    4669        iF      MOV      r1,sp
        0x00000a6a:    7048        Hp      STRB     r0,[r1,#1]
        0x00000a6c:    7208        .r      STRB     r0,[r1,#8]
        0x00000a6e:    7408        .t      STRB     r0,[r1,#0x10]
        0x00000a70:    7488        .t      STRB     r0,[r1,#0x12]
        0x00000a72:    2b01        .+      CMP      r3,#1
        0x00000a74:    d014        ..      BEQ      0xaa0 ; QSPI_SPI_Read_ + 76
        0x00000a76:    2b02        .+      CMP      r3,#2
        0x00000a78:    d014        ..      BEQ      0xaa4 ; QSPI_SPI_Read_ + 80
        0x00000a7a:    2003        .       MOVS     r0,#3
        0x00000a7c:    4669        iF      MOV      r1,sp
        0x00000a7e:    74c8        .t      STRB     r0,[r1,#0x13]
        0x00000a80:    9605        ..      STR      r6,[sp,#0x14]
        0x00000a82:    466a        jF      MOV      r2,sp
        0x00000a84:    2101        .!      MOVS     r1,#1
        0x00000a86:    4620         F      MOV      r0,r4
        0x00000a88:    f7fffcee    ....    BL       QSPI_Command ; 0x468
        0x00000a8c:    2f00        ./      CMP      r7,#0
        0x00000a8e:    d04a        J.      BEQ      0xb26 ; QSPI_SPI_Read_ + 210
        0x00000a90:    4620         F      MOV      r0,r4
        0x00000a92:    3020         0      ADDS     r0,r0,#0x20
        0x00000a94:    07a9        ..      LSLS     r1,r5,#30
        0x00000a96:    4684        .F      MOV      r12,r0
        0x00000a98:    2900        .)      CMP      r1,#0
        0x00000a9a:    d005        ..      BEQ      0xaa8 ; QSPI_SPI_Read_ + 84
        0x00000a9c:    2000        .       MOVS     r0,#0
        0x00000a9e:    e03c        <.      B        0xb1a ; QSPI_SPI_Read_ + 198
        0x00000aa0:    2001        .       MOVS     r0,#1
        0x00000aa2:    e7eb        ..      B        0xa7c ; QSPI_SPI_Read_ + 40
        0x00000aa4:    2002        .       MOVS     r0,#2
        0x00000aa6:    e7e9        ..      B        0xa7c ; QSPI_SPI_Read_ + 40
        0x00000aa8:    08b1        ..      LSRS     r1,r6,#2
        0x00000aaa:    2000        .       MOVS     r0,#0
        0x00000aac:    e00b        ..      B        0xac6 ; QSPI_SPI_Read_ + 114
        0x00000aae:    462a        *F      MOV      r2,r5
        0x00000ab0:    e000        ..      B        0xab4 ; QSPI_SPI_Read_ + 96
        0x00000ab2:    bf00        ..      NOP      
        0x00000ab4:    68a3        .h      LDR      r3,[r4,#8]
        0x00000ab6:    04db        ..      LSLS     r3,r3,#19
        0x00000ab8:    0edb        ..      LSRS     r3,r3,#27
        0x00000aba:    2b04        .+      CMP      r3,#4
        0x00000abc:    d3f9        ..      BCC      0xab2 ; QSPI_SPI_Read_ + 94
        0x00000abe:    6a23        #j      LDR      r3,[r4,#0x20]
        0x00000ac0:    0087        ..      LSLS     r7,r0,#2
        0x00000ac2:    51d3        .Q      STR      r3,[r2,r7]
        0x00000ac4:    1c40        @.      ADDS     r0,r0,#1
        0x00000ac6:    4288        .B      CMP      r0,r1
        0x00000ac8:    d3f1        ..      BCC      0xaae ; QSPI_SPI_Read_ + 90
        0x00000aca:    07b0        ..      LSLS     r0,r6,#30
        0x00000acc:    0f80        ..      LSRS     r0,r0,#30
        0x00000ace:    2802        .(      CMP      r0,#2
        0x00000ad0:    d30a        ..      BCC      0xae8 ; QSPI_SPI_Read_ + 148
        0x00000ad2:    0088        ..      LSLS     r0,r1,#2
        0x00000ad4:    1941        A.      ADDS     r1,r0,r5
        0x00000ad6:    e000        ..      B        0xada ; QSPI_SPI_Read_ + 134
        0x00000ad8:    bf00        ..      NOP      
        0x00000ada:    68a0        .h      LDR      r0,[r4,#8]
        0x00000adc:    04c0        ..      LSLS     r0,r0,#19
        0x00000ade:    0ec0        ..      LSRS     r0,r0,#27
        0x00000ae0:    2802        .(      CMP      r0,#2
        0x00000ae2:    d3f9        ..      BCC      0xad8 ; QSPI_SPI_Read_ + 132
        0x00000ae4:    8c20         .      LDRH     r0,[r4,#0x20]
        0x00000ae6:    8008        ..      STRH     r0,[r1,#0]
        0x00000ae8:    07f0        ..      LSLS     r0,r6,#31
        0x00000aea:    d101        ..      BNE      0xaf0 ; QSPI_SPI_Read_ + 156
        0x00000aec:    e017        ..      B        0xb1e ; QSPI_SPI_Read_ + 202
        0x00000aee:    bf00        ..      NOP      
        0x00000af0:    68a0        .h      LDR      r0,[r4,#8]
        0x00000af2:    04c0        ..      LSLS     r0,r0,#19
        0x00000af4:    0ec0        ..      LSRS     r0,r0,#27
        0x00000af6:    2800        .(      CMP      r0,#0
        0x00000af8:    d0f9        ..      BEQ      0xaee ; QSPI_SPI_Read_ + 154
        0x00000afa:    4660        `F      MOV      r0,r12
        0x00000afc:    7801        .x      LDRB     r1,[r0,#0]
        0x00000afe:    19a8        ..      ADDS     r0,r5,r6
        0x00000b00:    3820         8      SUBS     r0,r0,#0x20
        0x00000b02:    77c1        .w      STRB     r1,[r0,#0x1f]
        0x00000b04:    e00b        ..      B        0xb1e ; QSPI_SPI_Read_ + 202
        0x00000b06:    bf00        ..      NOP      
        0x00000b08:    68a1        .h      LDR      r1,[r4,#8]
        0x00000b0a:    04c9        ..      LSLS     r1,r1,#19
        0x00000b0c:    0ec9        ..      LSRS     r1,r1,#27
        0x00000b0e:    2900        .)      CMP      r1,#0
        0x00000b10:    d0f9        ..      BEQ      0xb06 ; QSPI_SPI_Read_ + 178
        0x00000b12:    4661        aF      MOV      r1,r12
        0x00000b14:    7809        .x      LDRB     r1,[r1,#0]
        0x00000b16:    5429        )T      STRB     r1,[r5,r0]
        0x00000b18:    1c40        @.      ADDS     r0,r0,#1
        0x00000b1a:    42b0        .B      CMP      r0,r6
        0x00000b1c:    d3f4        ..      BCC      0xb08 ; QSPI_SPI_Read_ + 180
        0x00000b1e:    6820         h      LDR      r0,[r4,#0]
        0x00000b20:    2102        .!      MOVS     r1,#2
        0x00000b22:    4308        .C      ORRS     r0,r0,r1
        0x00000b24:    6020         `      STR      r0,[r4,#0]
        0x00000b26:    b007        ..      ADD      sp,sp,#0x1c
        0x00000b28:    bdf0        ..      POP      {r4-r7,pc}
    QSPI_FIFOSpace
        0x00000b2a:    6880        .h      LDR      r0,[r0,#8]
        0x00000b2c:    04c0        ..      LSLS     r0,r0,#19
        0x00000b2e:    0ec0        ..      LSRS     r0,r0,#27
        0x00000b30:    2110        .!      MOVS     r1,#0x10
        0x00000b32:    1a08        ..      SUBS     r0,r1,r0
        0x00000b34:    4770        pG      BX       lr
    $d
        0x00000b36:    0000        ..      DCW    0
        0x00000b38:    00000004    ....    DCD    4
    $t
    .text
    SystemCoreClockUpdate
        0x00000b3c:    b570        p.      PUSH     {r4-r6,lr}
        0x00000b3e:    2501        .%      MOVS     r5,#1
        0x00000b40:    07ad        ..      LSLS     r5,r5,#30
        0x00000b42:    6828        (h      LDR      r0,[r5,#0]
        0x00000b44:    4c6d        mL      LDR      r4,[pc,#436] ; [0xcfc] = 0x8
        0x00000b46:    496c        lI      LDR      r1,[pc,#432] ; [0xcf8] = 0x7a1200
        0x00000b48:    07c0        ..      LSLS     r0,r0,#31
        0x00000b4a:    444c        LD      ADD      r4,r4,r9
        0x00000b4c:    d001        ..      BEQ      0xb52 ; SystemCoreClockUpdate + 22
        0x00000b4e:    6021        !`      STR      r1,[r4,#0]
        0x00000b50:    e030        0.      B        0xbb4 ; SystemCoreClockUpdate + 120
        0x00000b52:    6828        (h      LDR      r0,[r5,#0]
        0x00000b54:    06c0        ..      LSLS     r0,r0,#27
        0x00000b56:    0f80        ..      LSRS     r0,r0,#30
        0x00000b58:    d020         .      BEQ      0xb9c ; SystemCoreClockUpdate + 96
        0x00000b5a:    2801        .(      CMP      r0,#1
        0x00000b5c:    d008        ..      BEQ      0xb70 ; SystemCoreClockUpdate + 52
        0x00000b5e:    2802        .(      CMP      r0,#2
        0x00000b60:    d003        ..      BEQ      0xb6a ; SystemCoreClockUpdate + 46
        0x00000b62:    2803        .(      CMP      r0,#3
        0x00000b64:    d11d        ..      BNE      0xba2 ; SystemCoreClockUpdate + 102
        0x00000b66:    6021        !`      STR      r1,[r4,#0]
        0x00000b68:    e01b        ..      B        0xba2 ; SystemCoreClockUpdate + 102
        0x00000b6a:    4865        eH      LDR      r0,[pc,#404] ; [0xd00] = 0xb71b00
        0x00000b6c:    6020         `      STR      r0,[r4,#0]
        0x00000b6e:    e018        ..      B        0xba2 ; SystemCoreClockUpdate + 102
        0x00000b70:    4a64        dJ      LDR      r2,[pc,#400] ; [0xd04] = 0x40045800
        0x00000b72:    6990        .i      LDR      r0,[r2,#0x18]
        0x00000b74:    0480        ..      LSLS     r0,r0,#18
        0x00000b76:    0e81        ..      LSRS     r1,r0,#26
        0x00000b78:    6990        .i      LDR      r0,[r2,#0x18]
        0x00000b7a:    02c0        ..      LSLS     r0,r0,#11
        0x00000b7c:    0e40        @.      LSRS     r0,r0,#25
        0x00000b7e:    6992        .i      LDR      r2,[r2,#0x18]
        0x00000b80:    0752        R.      LSLS     r2,r2,#29
        0x00000b82:    d505        ..      BPL      0xb90 ; SystemCoreClockUpdate + 84
        0x00000b84:    4a5e        ^J      LDR      r2,[pc,#376] ; [0xd00] = 0xb71b00
        0x00000b86:    4350        PC      MULS     r0,r2,r0
        0x00000b88:    f000f8c4    ....    BL       __aeabi_uidiv ; 0xd14
        0x00000b8c:    6020         `      STR      r0,[r4,#0]
        0x00000b8e:    e008        ..      B        0xba2 ; SystemCoreClockUpdate + 102
        0x00000b90:    4a59        YJ      LDR      r2,[pc,#356] ; [0xcf8] = 0x7a1200
        0x00000b92:    4350        PC      MULS     r0,r2,r0
        0x00000b94:    f000f8be    ....    BL       __aeabi_uidiv ; 0xd14
        0x00000b98:    6020         `      STR      r0,[r4,#0]
        0x00000b9a:    e002        ..      B        0xba2 ; SystemCoreClockUpdate + 102
        0x00000b9c:    207d        }       MOVS     r0,#0x7d
        0x00000b9e:    0200        ..      LSLS     r0,r0,#8
        0x00000ba0:    6020         `      STR      r0,[r4,#0]
        0x00000ba2:    6828        (h      LDR      r0,[r5,#0]
        0x00000ba4:    2101        .!      MOVS     r1,#1
        0x00000ba6:    0740        @.      LSLS     r0,r0,#29
        0x00000ba8:    0f80        ..      LSRS     r0,r0,#30
        0x00000baa:    4081        .@      LSLS     r1,r1,r0
        0x00000bac:    6820         h      LDR      r0,[r4,#0]
        0x00000bae:    f000f8b1    ....    BL       __aeabi_uidiv ; 0xd14
        0x00000bb2:    6020         `      STR      r0,[r4,#0]
        0x00000bb4:    4954        TI      LDR      r1,[pc,#336] ; [0xd08] = 0xf4240
        0x00000bb6:    6820         h      LDR      r0,[r4,#0]
        0x00000bb8:    f000f8ac    ....    BL       __aeabi_uidiv ; 0xd14
        0x00000bbc:    6060        ``      STR      r0,[r4,#4]
        0x00000bbe:    bd70        p.      POP      {r4-r6,pc}
    switchToDIV
        0x00000bc0:    b430        0.      PUSH     {r4,r5}
        0x00000bc2:    2201        ."      MOVS     r2,#1
        0x00000bc4:    0792        ..      LSLS     r2,r2,#30
        0x00000bc6:    6813        .h      LDR      r3,[r2,#0]
        0x00000bc8:    241e        .$      MOVS     r4,#0x1e
        0x00000bca:    43a3        .C      BICS     r3,r3,r4
        0x00000bcc:    6013        .`      STR      r3,[r2,#0]
        0x00000bce:    00c0        ..      LSLS     r0,r0,#3
        0x00000bd0:    0049        I.      LSLS     r1,r1,#1
        0x00000bd2:    4308        .C      ORRS     r0,r0,r1
        0x00000bd4:    6811        .h      LDR      r1,[r2,#0]
        0x00000bd6:    4308        .C      ORRS     r0,r0,r1
        0x00000bd8:    6010        .`      STR      r0,[r2,#0]
        0x00000bda:    2001        .       MOVS     r0,#1
        0x00000bdc:    6050        P`      STR      r0,[r2,#4]
        0x00000bde:    2000        .       MOVS     r0,#0
        0x00000be0:    4946        FI      LDR      r1,[pc,#280] ; [0xcfc] = 0x8
        0x00000be2:    4449        ID      ADD      r1,r1,r9
        0x00000be4:    6849        Ih      LDR      r1,[r1,#4]
        0x00000be6:    e000        ..      B        0xbea ; switchToDIV + 42
        0x00000be8:    1c40        @.      ADDS     r0,r0,#1
        0x00000bea:    4288        .B      CMP      r0,r1
        0x00000bec:    d3fc        ..      BCC      0xbe8 ; switchToDIV + 40
        0x00000bee:    6810        .h      LDR      r0,[r2,#0]
        0x00000bf0:    0840        @.      LSRS     r0,r0,#1
        0x00000bf2:    0040        @.      LSLS     r0,r0,#1
        0x00000bf4:    6010        .`      STR      r0,[r2,#0]
        0x00000bf6:    bc30        0.      POP      {r4,r5}
        0x00000bf8:    e7a0        ..      B        SystemCoreClockUpdate ; 0xb3c
    switchOn32KHz
        0x00000bfa:    4842        BH      LDR      r0,[pc,#264] ; [0xd04] = 0x40045800
        0x00000bfc:    6881        .h      LDR      r1,[r0,#8]
        0x00000bfe:    2202        ."      MOVS     r2,#2
        0x00000c00:    4311        .C      ORRS     r1,r1,r2
        0x00000c02:    6081        .`      STR      r1,[r0,#8]
        0x00000c04:    4770        pG      BX       lr
    switchOnHRC
        0x00000c06:    483f        ?H      LDR      r0,[pc,#252] ; [0xd04] = 0x40045800
        0x00000c08:    6881        .h      LDR      r1,[r0,#8]
        0x00000c0a:    2201        ."      MOVS     r2,#1
        0x00000c0c:    4311        .C      ORRS     r1,r1,r2
        0x00000c0e:    6081        .`      STR      r1,[r0,#8]
        0x00000c10:    4770        pG      BX       lr
    switchOnXTAL
        0x00000c12:    b510        ..      PUSH     {r4,lr}
        0x00000c14:    483d        =H      LDR      r0,[pc,#244] ; [0xd0c] = 0x40046100
        0x00000c16:    6902        .i      LDR      r2,[r0,#0x10]
        0x00000c18:    2103        .!      MOVS     r1,#3
        0x00000c1a:    02c9        ..      LSLS     r1,r1,#11
        0x00000c1c:    438a        .C      BICS     r2,r2,r1
        0x00000c1e:    6102        .a      STR      r2,[r0,#0x10]
        0x00000c20:    483b        ;H      LDR      r0,[pc,#236] ; [0xd10] = 0x40046200
        0x00000c22:    6902        .i      LDR      r2,[r0,#0x10]
        0x00000c24:    438a        .C      BICS     r2,r2,r1
        0x00000c26:    6102        .a      STR      r2,[r0,#0x10]
        0x00000c28:    4c38        8L      LDR      r4,[pc,#224] ; [0xd0c] = 0x40046100
        0x00000c2a:    2300        .#      MOVS     r3,#0
        0x00000c2c:    3cf0        .<      SUBS     r4,r4,#0xf0
        0x00000c2e:    2207        ."      MOVS     r2,#7
        0x00000c30:    210b        .!      MOVS     r1,#0xb
        0x00000c32:    4620         F      MOV      r0,r4
        0x00000c34:    f7fffae2    ....    BL       PORT_Init ; 0x1fc
        0x00000c38:    2300        .#      MOVS     r3,#0
        0x00000c3a:    2207        ."      MOVS     r2,#7
        0x00000c3c:    210c        .!      MOVS     r1,#0xc
        0x00000c3e:    4620         F      MOV      r0,r4
        0x00000c40:    f7fffadc    ....    BL       PORT_Init ; 0x1fc
        0x00000c44:    482f        /H      LDR      r0,[pc,#188] ; [0xd04] = 0x40045800
        0x00000c46:    6901        .i      LDR      r1,[r0,#0x10]
        0x00000c48:    2205        ."      MOVS     r2,#5
        0x00000c4a:    4311        .C      ORRS     r1,r1,r2
        0x00000c4c:    6101        .a      STR      r1,[r0,#0x10]
        0x00000c4e:    bd10        ..      POP      {r4,pc}
    switchOnPLL
        0x00000c50:    b570        p.      PUSH     {r4-r6,lr}
        0x00000c52:    4604        .F      MOV      r4,r0
        0x00000c54:    460d        .F      MOV      r5,r1
        0x00000c56:    4616        .F      MOV      r6,r2
        0x00000c58:    2c02        .,      CMP      r4,#2
        0x00000c5a:    d00d        ..      BEQ      0xc78 ; switchOnPLL + 40
        0x00000c5c:    f7ffffd3    ....    BL       switchOnHRC ; 0xc06
        0x00000c60:    2c02        .,      CMP      r4,#2
        0x00000c62:    d00c        ..      BEQ      0xc7e ; switchOnPLL + 46
        0x00000c64:    2000        .       MOVS     r0,#0
        0x00000c66:    0081        ..      LSLS     r1,r0,#2
        0x00000c68:    1c89        ..      ADDS     r1,r1,#2
        0x00000c6a:    0228        (.      LSLS     r0,r5,#8
        0x00000c6c:    4301        .C      ORRS     r1,r1,r0
        0x00000c6e:    03b0        ..      LSLS     r0,r6,#14
        0x00000c70:    4301        .C      ORRS     r1,r1,r0
        0x00000c72:    4824        $H      LDR      r0,[pc,#144] ; [0xd04] = 0x40045800
        0x00000c74:    6181        .a      STR      r1,[r0,#0x18]
        0x00000c76:    e005        ..      B        0xc84 ; switchOnPLL + 52
        0x00000c78:    f7ffffcb    ....    BL       switchOnXTAL ; 0xc12
        0x00000c7c:    e7f0        ..      B        0xc60 ; switchOnPLL + 16
        0x00000c7e:    2001        .       MOVS     r0,#1
        0x00000c80:    e7f1        ..      B        0xc66 ; switchOnPLL + 22
        0x00000c82:    bf00        ..      NOP      
        0x00000c84:    69c1        .i      LDR      r1,[r0,#0x1c]
        0x00000c86:    07c9        ..      LSLS     r1,r1,#31
        0x00000c88:    d0fb        ..      BEQ      0xc82 ; switchOnPLL + 50
        0x00000c8a:    69c1        .i      LDR      r1,[r0,#0x1c]
        0x00000c8c:    2202        ."      MOVS     r2,#2
        0x00000c8e:    4311        .C      ORRS     r1,r1,r2
        0x00000c90:    61c1        .a      STR      r1,[r0,#0x1c]
        0x00000c92:    bd70        p.      POP      {r4-r6,pc}
    switchToHRC
        0x00000c94:    481b        .H      LDR      r0,[pc,#108] ; [0xd04] = 0x40045800
        0x00000c96:    6881        .h      LDR      r1,[r0,#8]
        0x00000c98:    2201        ."      MOVS     r2,#1
        0x00000c9a:    4311        .C      ORRS     r1,r1,r2
        0x00000c9c:    6081        .`      STR      r1,[r0,#8]
        0x00000c9e:    2000        .       MOVS     r0,#0
        0x00000ca0:    4916        .I      LDR      r1,[pc,#88] ; [0xcfc] = 0x8
        0x00000ca2:    4449        ID      ADD      r1,r1,r9
        0x00000ca4:    6849        Ih      LDR      r1,[r1,#4]
        0x00000ca6:    e000        ..      B        0xcaa ; switchToHRC + 22
        0x00000ca8:    1c40        @.      ADDS     r0,r0,#1
        0x00000caa:    4288        .B      CMP      r0,r1
        0x00000cac:    d3fc        ..      BCC      0xca8 ; switchToHRC + 20
        0x00000cae:    2101        .!      MOVS     r1,#1
        0x00000cb0:    0789        ..      LSLS     r1,r1,#30
        0x00000cb2:    6808        .h      LDR      r0,[r1,#0]
        0x00000cb4:    4310        .C      ORRS     r0,r0,r2
        0x00000cb6:    6008        .`      STR      r0,[r1,#0]
        0x00000cb8:    e740        @.      B        SystemCoreClockUpdate ; 0xb3c
    SystemInit
        0x00000cba:    b510        ..      PUSH     {r4,lr}
        0x00000cbc:    2001        .       MOVS     r0,#1
        0x00000cbe:    0780        ..      LSLS     r0,r0,#30
        0x00000cc0:    6881        .h      LDR      r1,[r0,#8]
        0x00000cc2:    1402        ..      ASRS     r2,r0,#16
        0x00000cc4:    4311        .C      ORRS     r1,r1,r2
        0x00000cc6:    6081        .`      STR      r1,[r0,#8]
        0x00000cc8:    f7ffffe4    ....    BL       switchToHRC ; 0xc94
        0x00000ccc:    220f        ."      MOVS     r2,#0xf
        0x00000cce:    2102        .!      MOVS     r1,#2
        0x00000cd0:    2003        .       MOVS     r0,#3
        0x00000cd2:    f7ffffbd    ....    BL       switchOnPLL ; 0xc50
        0x00000cd6:    2100        .!      MOVS     r1,#0
        0x00000cd8:    2001        .       MOVS     r0,#1
        0x00000cda:    f7ffff71    ..q.    BL       switchToDIV ; 0xbc0
        0x00000cde:    480c        .H      LDR      r0,[pc,#48] ; [0xd10] = 0x40046200
        0x00000ce0:    6901        .i      LDR      r1,[r0,#0x10]
        0x00000ce2:    2203        ."      MOVS     r2,#3
        0x00000ce4:    0292        ..      LSLS     r2,r2,#10
        0x00000ce6:    4391        .C      BICS     r1,r1,r2
        0x00000ce8:    6101        .a      STR      r1,[r0,#0x10]
        0x00000cea:    4808        .H      LDR      r0,[pc,#32] ; [0xd0c] = 0x40046100
        0x00000cec:    6901        .i      LDR      r1,[r0,#0x10]
        0x00000cee:    2209        ."      MOVS     r2,#9
        0x00000cf0:    0312        ..      LSLS     r2,r2,#12
        0x00000cf2:    4391        .C      BICS     r1,r1,r2
        0x00000cf4:    6101        .a      STR      r1,[r0,#0x10]
        0x00000cf6:    bd10        ..      POP      {r4,pc}
    $d
        0x00000cf8:    007a1200    ..z.    DCD    8000000
        0x00000cfc:    00000008    ....    DCD    8
        0x00000d00:    00b71b00    ....    DCD    12000000
        0x00000d04:    40045800    .X.@    DCD    1074026496
        0x00000d08:    000f4240    @B..    DCD    1000000
        0x00000d0c:    40046100    .a.@    DCD    1074028800
        0x00000d10:    40046200    .b.@    DCD    1074029056
    $t
    .text
    __aeabi_uidiv
    __aeabi_uidivmod
        0x00000d14:    b530        0.      PUSH     {r4,r5,lr}
        0x00000d16:    460b        .F      MOV      r3,r1
        0x00000d18:    4601        .F      MOV      r1,r0
        0x00000d1a:    2000        .       MOVS     r0,#0
        0x00000d1c:    2220         "      MOVS     r2,#0x20
        0x00000d1e:    2401        .$      MOVS     r4,#1
        0x00000d20:    e009        ..      B        0xd36 ; __aeabi_uidiv + 34
        0x00000d22:    460d        .F      MOV      r5,r1
        0x00000d24:    40d5        .@      LSRS     r5,r5,r2
        0x00000d26:    429d        .B      CMP      r5,r3
        0x00000d28:    d305        ..      BCC      0xd36 ; __aeabi_uidiv + 34
        0x00000d2a:    461d        .F      MOV      r5,r3
        0x00000d2c:    4095        .@      LSLS     r5,r5,r2
        0x00000d2e:    1b49        I.      SUBS     r1,r1,r5
        0x00000d30:    4625        %F      MOV      r5,r4
        0x00000d32:    4095        .@      LSLS     r5,r5,r2
        0x00000d34:    1940        @.      ADDS     r0,r0,r5
        0x00000d36:    4615        .F      MOV      r5,r2
        0x00000d38:    1e52        R.      SUBS     r2,r2,#1
        0x00000d3a:    2d00        .-      CMP      r5,#0
        0x00000d3c:    dcf1        ..      BGT      0xd22 ; __aeabi_uidiv + 14
        0x00000d3e:    bd30        0.      POP      {r4,r5,pc}

** Section #2 'PrgData' (SHT_PROGBITS) [SHF_ALLOC + SHF_WRITE]
    Size   : 16 bytes (alignment 4)
    Address: 0x00000d40


** Section #3 'PrgData' (SHT_NOBITS) [SHF_ALLOC + SHF_WRITE]
    Size   : 1024 bytes
    Address: 0x00000d50


** Section #4 'DevDscr' (SHT_PROGBITS) [SHF_ALLOC]
    Size   : 4256 bytes (alignment 4)
    Address: 0x00000d50


** Section #5 '.debug_abbrev' (SHT_PROGBITS)
    Size   : 1476 bytes


** Section #6 '.debug_frame' (SHT_PROGBITS)
    Size   : 1544 bytes


** Section #7 '.debug_info' (SHT_PROGBITS)
    Size   : 20600 bytes


** Section #8 '.debug_line' (SHT_PROGBITS)
    Size   : 6124 bytes


** Section #9 '.debug_loc' (SHT_PROGBITS)
    Size   : 5736 bytes


** Section #10 '.debug_macinfo' (SHT_PROGBITS)
    Size   : 75760 bytes


** Section #11 '.debug_pubnames' (SHT_PROGBITS)
    Size   : 946 bytes


** Section #12 '.symtab' (SHT_SYMTAB)
    Size   : 1792 bytes (alignment 4)
    String table #13 '.strtab'
    Last local symbol no. 49


** Section #13 '.strtab' (SHT_STRTAB)
    Size   : 1736 bytes


** Section #14 '.note' (SHT_NOTE)
    Size   : 32 bytes (alignment 4)


** Section #15 '.comment' (SHT_PROGBITS)
    Size   : 6248 bytes


** Section #16 '.shstrtab' (SHT_STRTAB)
    Size   : 160 bytes


